(lp0
(V19gLNNMwtnN2rJhQDR18Nq7pSL4MwHFTFQ
p1
S'1PWr5e1JjL8wy6uzKzb5d3pCxkNLYm5vt1'
p2
I0
tp3
a(g1
S'1CvQ4VrY5R8cDDo4ipSGEQ2V2TJ7gs55bt'
p4
I0
tp5
a(g1
S'1L2f6V9yRvBkRNcPawTvpwX6oHwirPZtSk'
p6
I0
tp7
a(g1
S'15VQ6HdVNZVdnjn5eamTuYM5EoJMk8WKh6'
p8
I0
tp9
a(g1
S'1A3KZP6GcGoKfnLJrmDmpJMeoL1Ft47ojJ'
p10
I0
tp11
a(g4
S'1PWr5e1JjL8wy6uzKzb5d3pCxkNLYm5vt1'
p12
I1
tp13
a(g4
S'1L2f6V9yRvBkRNcPawTvpwX6oHwirPZtSk'
p14
I1
tp15
a(g4
S'15VQ6HdVNZVdnjn5eamTuYM5EoJMk8WKh6'
p16
I1
tp17
a(g4
S'1A3KZP6GcGoKfnLJrmDmpJMeoL1Ft47ojJ'
p18
I1
tp19
a(g4
S'1C6eiVsobropwuFk65oc1SGFBf3rSqpn1u'
p20
I1
tp21
a(g16
S'1PWr5e1JjL8wy6uzKzb5d3pCxkNLYm5vt1'
p22
I2
tp23
a(g16
S'1CvQ4VrY5R8cDDo4ipSGEQ2V2TJ7gs55bt'
p24
I2
tp25
a(g16
S'1L2f6V9yRvBkRNcPawTvpwX6oHwirPZtSk'
p26
I2
tp27
a(g16
S'1A3KZP6GcGoKfnLJrmDmpJMeoL1Ft47ojJ'
p28
I2
tp29
a(g16
S'1MB4mjcx7sSgCnUyEWaVu2SV2Hwd5AWh7E'
p30
I2
tp31
a(g16
S'1D3hp4Hg5UGdenhgGScfXvPJsqthLjEx98'
p32
I2
tp33
a(g16
S'1D3hp4Hg5UGdenhgGScfXvPJsqthLjEx98'
p34
I2
tp35
a(g18
S'1PWr5e1JjL8wy6uzKzb5d3pCxkNLYm5vt1'
p36
I2
tp37
a(g18
S'1CvQ4VrY5R8cDDo4ipSGEQ2V2TJ7gs55bt'
p38
I2
tp39
a(g18
S'1L2f6V9yRvBkRNcPawTvpwX6oHwirPZtSk'
p40
I2
tp41
a(g18
S'15VQ6HdVNZVdnjn5eamTuYM5EoJMk8WKh6'
p42
I2
tp43
a(g18
S'1eHhgW6vquBYhwMPhQ668HPjxTtpvZGPC'
p44
I2
tp45
a(g18
S'1eHhgW6vquBYhwMPhQ668HPjxTtpvZGPC'
p46
I2
tp47
a(g18
S'1eHhgW6vquBYhwMPhQ668HPjxTtpvZGPC'
p48
I2
tp49
a(g18
S'1eHhgW6vquBYhwMPhQ668HPjxTtpvZGPC'
p50
I2
tp51
a(g18
S'1EnxteMq58ams1Cvj8ouSeicK6hoDzdHVp'
p52
I2
tp53
a(g18
S'1CiYJuuiDR151uQoP2KRGXYqehNJ8qpzui'
p54
I2
tp55
a(g18
S'1eHhgW6vquBYhwMPhQ668HPjxTtpvZGPC'
p56
I2
tp57
a(g18
S'1Hzpk4eXTbrAfmH2noWrkrgxo6ewH6qncd'
p58
I2
tp59
a(g18
S'1FxrbkAq9vHPXGK7DZ2PknSS6Zy13kpBvJ'
p60
I2
tp61
a(g12
S'1CvQ4VrY5R8cDDo4ipSGEQ2V2TJ7gs55bt'
p62
I2
tp63
a(g12
S'1L2f6V9yRvBkRNcPawTvpwX6oHwirPZtSk'
p64
I2
tp65
a(g12
S'15VQ6HdVNZVdnjn5eamTuYM5EoJMk8WKh6'
p66
I2
tp67
a(g12
S'1A3KZP6GcGoKfnLJrmDmpJMeoL1Ft47ojJ'
p68
I2
tp69
a(g12
S'12hRmmSda9qSSEH656zBaKEbeisH6ZhdTm'
p70
I2
tp71
a(g20
S'19L2wFKxxWBVHWLt8phYvtQB7tXZ2xvn8s'
p72
I2
tp73
a(g20
S'1AoaxEYxASkAdSSzm8t98ChEuVuWtvETNt'
p74
I2
tp75
a(g14
S'1PWr5e1JjL8wy6uzKzb5d3pCxkNLYm5vt1'
p76
I2
tp77
a(g14
S'1CvQ4VrY5R8cDDo4ipSGEQ2V2TJ7gs55bt'
p78
I2
tp79
a(g14
S'15VQ6HdVNZVdnjn5eamTuYM5EoJMk8WKh6'
p80
I2
tp81
a(g14
S'1A3KZP6GcGoKfnLJrmDmpJMeoL1Ft47ojJ'
p82
I2
tp83
a(g14
S'1eHhgW6vquBYhwMPhQ668HPjxTtpvZGPC'
p84
I2
tp85
a(g14
S'1Bfip6L9a3dyuEWQdQmP6yZzTLho79K9CN'
p86
I2
tp87
a(g14
S'1Bfip6L9a3dyuEWQdQmP6yZzTLho79K9CN'
p88
I2
tp89
a(g14
S'1Bfip6L9a3dyuEWQdQmP6yZzTLho79K9CN'
p90
I2
tp91
a(g14
S'17UWhmdTdBK5u2q4i2tUMNFgijZpc91Ek2'
p92
I2
tp93
a.