(lp0
(V1AB6k6jfajmC6Mm2uMn4BZtp99gHJNcJzA
p1
S'12hS4Pv6BS1qxUV2fMHozYhvfMsoFrEUsq'
p2
I0
tp3
a(g1
S'15zpbS96XcvRFnyh4Au9B1YRYK2tqpwLya'
p4
I0
tp5
a(g1
S'1MPZsccLaYBh6Vd7LxjbSzbemyE683ueZh'
p6
I0
tp7
a(g1
S'1Mr3kEFgjNPn7iFMtUFCt4dBXdFZfX6AfU'
p8
I0
tp9
a(g1
S'15EAyx6ZXgsDRQ4y9yhaCrdkQiuTx8ej57'
p10
I0
tp11
a(g1
S'1MPZsccLaYBh6Vd7LxjbSzbemyE683ueZh'
p12
I0
tp13
a(g4
S'1HWXiebefL1r7T1YKFNtLXfAKJh5Jf2NZR'
p14
I1
tp15
a(g4
S'1GfwMeCqkUEHb6yvHkcPjns4RJZXTmQzWJ'
p16
I1
tp17
a(g4
S'1MPZsccLaYBh6Vd7LxjbSzbemyE683ueZh'
p18
I1
tp19
a(g4
S'12hS4Pv6BS1qxUV2fMHozYhvfMsoFrEUsq'
p20
I1
tp21
a(g4
S'1AB6k6jfajmC6Mm2uMn4BZtp99gHJNcJzA'
p22
I1
tp23
a(g4
S'1MPZsccLaYBh6Vd7LxjbSzbemyE683ueZh'
p24
I1
tp25
a(g16
S'1PtH5M2LQEBUWYYLHpQQ6KMp5S9jry9GNU'
p26
I2
tp27
a(g16
S'15aCDyXKWFbVbiRLqHgpNq3AxX4qnK4eZR'
p28
I2
tp29
a(g16
S'1MPZsccLaYBh6Vd7LxjbSzbemyE683ueZh'
p30
I2
tp31
a(g16
S'1HWXiebefL1r7T1YKFNtLXfAKJh5Jf2NZR'
p32
I2
tp33
a(g16
S'15zpbS96XcvRFnyh4Au9B1YRYK2tqpwLya'
p34
I2
tp35
a(g16
S'1MPZsccLaYBh6Vd7LxjbSzbemyE683ueZh'
p36
I2
tp37
a(g20
S'1AB6k6jfajmC6Mm2uMn4BZtp99gHJNcJzA'
p38
I2
tp39
a(g20
S'15zpbS96XcvRFnyh4Au9B1YRYK2tqpwLya'
p40
I2
tp41
a(g20
S'1MPZsccLaYBh6Vd7LxjbSzbemyE683ueZh'
p42
I2
tp43
a(g20
S'1DC654p86Ku47oc5V3EchLV1ch3qavQCXJ'
p44
I2
tp45
a(g20
S'1PffTDCPBFciVTkHsg9Ecjtj63Ed9MFYsp'
p46
I2
tp47
a(g20
S'1PrqDDXzqvPHgkyh4WvFiTeGCmKi46V9M7'
p48
I2
tp49
a(g20
S'1LUiBaZEVo4rgYnhuJwQPMGE4Sa5SBWPzf'
p50
I2
tp51
a(g14
S'15zpbS96XcvRFnyh4Au9B1YRYK2tqpwLya'
p52
I2
tp53
a(g14
S'1GfwMeCqkUEHb6yvHkcPjns4RJZXTmQzWJ'
p54
I2
tp55
a(g14
S'1MPZsccLaYBh6Vd7LxjbSzbemyE683ueZh'
p56
I2
tp57
a(g14
S'17hxPj28HwZiqJhKPFyAntQKcM3FR9nrUu'
p58
I2
tp59
a(g14
S'17hxPj28HwZiqJhKPFyAntQKcM3FR9nrUu'
p60
I2
tp61
a(g14
S'1Pxs2mRNVVSZJxJBpQXrPUktRWGLpiksW3'
p62
I2
tp63
a(g18
S'18fKapHSuRr8fdxr3eQkpEsE2tUHqwvoy1'
p64
I2
tp65
a(g18
S'18g35fXeL7DCoBxRa1R2GfFoKXST8dNcyb'
p66
I2
tp67
a(g18
S'18cw2KJaXX2DVN8xhMK9rRCeBXRCurGys3'
p68
I2
tp69
a(g18
S'14fWdJFoqHYxprxeHTjj5f6yg2r3iayozz'
p70
I2
tp71
a(g18
S'1GGXZwPjS2RaPGNHm9hdvcza4GRaQf9SJR'
p72
I2
tp73
a(g18
S'1HkPABpi2tU8qngKwFLaVBzAZvD8sX3qgu'
p74
I2
tp75
a(g18
S'1BVGXreEg1Be1hVnYRUyTibRtBh64RD9wJ'
p76
I2
tp77
a(g18
S'1CmacV437CDPRdsDhtE6FTdfQGMMB1RyVN'
p78
I2
tp79
a(g18
S'1FYcLBxMpo1mTayWN4mgy3EHdTcUis6Bfq'
p80
I2
tp81
a(g18
S'19Zj35EcGLZZ4DPFJzRXiZAMVkErvUCfct'
p82
I2
tp83
a(g18
S'1AGPdo7f8wmzaZNKEphvFMtbYhtJoU5DPV'
p84
I2
tp85
a(g18
S'1BVGXreEg1Be1hVnYRUyTibRtBh64RD9wJ'
p86
I2
tp87
a(g18
S'1Fnwc6j2oNYpMqdvgjEYQHURfvkwH4rX6G'
p88
I2
tp89
a(g18
S'1JJtAvSXhVqj66NvNFofJppEbHUuVgj7ES'
p90
I2
tp91
a(g18
S'13PWYXsJjYu9Sb7fVzAPzvBapEjZBnFpu1'
p92
I2
tp93
a(g18
S'1Br8YgvcitcCZXYwrBs6jg1EkvY6Shc53z'
p94
I2
tp95
a(g18
S'1MzLnDb9fZEzvidtcQmZ8Dw6vqetH1ez9'
p96
I2
tp97
a(g18
S'19Zj35EcGLZZ4DPFJzRXiZAMVkErvUCfct'
p98
I2
tp99
a(g18
S'1JSNUBsU9T84QPQjyzAexkSRLRxjLskped'
p100
I2
tp101
a(g18
S'1nJwFyRmAr7cRjKWRhv94zcq7TKk7J9n9'
p102
I2
tp103
a(g18
S'1MzLnDb9fZEzvidtcQmZ8Dw6vqetH1ez9'
p104
I2
tp105
a(g18
S'166WiqyEYXF331fjtcsDmUfNuwR2NBYtgG'
p106
I2
tp107
a(g18
S'1FQimrDBBCAfezJZ3KPeuUfxhQDqtyC7gb'
p108
I2
tp109
a(g18
S'1JSNUBsU9T84QPQjyzAexkSRLRxjLskped'
p110
I2
tp111
a(g18
S'15PVg3Avv8i9SCUCUMhAB76irgRWLDc4uG'
p112
I2
tp113
a(g18
S'1BMF5SLYo2w7MMs1s1oP1gjNwVr3firnth'
p114
I2
tp115
a(g18
S'166WiqyEYXF331fjtcsDmUfNuwR2NBYtgG'
p116
I2
tp117
a(g18
S'1Gfh4RNiDkbAduNJtstdii4FaG6sQRMF9s'
p118
I2
tp119
a(g18
S'1HQYp5HDCwgHHraGfT8SuM5yi4uQDp3PUz'
p120
I2
tp121
a(g18
S'15PVg3Avv8i9SCUCUMhAB76irgRWLDc4uG'
p122
I2
tp123
a(g18
S'1BPNP1erFx2EkyTZUobQnF7CT2FQSPiZ9q'
p124
I2
tp125
a(g18
S'152nXHegGggoekAYsmymT7ymXgAGyyCL1Z'
p126
I2
tp127
a(g18
S'1HQYp5HDCwgHHraGfT8SuM5yi4uQDp3PUz'
p128
I2
tp129
a(g18
S'1EeeuPJfHgpw56sGjGBeZTqfqzDV5teKti'
p130
I2
tp131
a(g18
S'15E6YPrwM5pPydfvhpsYmi7MYRYpVBSdvm'
p132
I2
tp133
a(g18
S'1BPNP1erFx2EkyTZUobQnF7CT2FQSPiZ9q'
p134
I2
tp135
a(g18
S'1LoR6SWUoGmWYDP8gs4UQtApAeRUgicL4W'
p136
I2
tp137
a(g18
S'1JZZNiN3ZTiAhmBXRvangKDne9vP3zkwUD'
p138
I2
tp139
a(g18
S'15E6YPrwM5pPydfvhpsYmi7MYRYpVBSdvm'
p140
I2
tp141
a(g18
S'1KXe6gW13zRANacV9XTahYKq8XZ8rAckYS'
p142
I2
tp143
a(g18
S'14yk7Aw7EZ4yNoRHMnTPfuauNenxadsWLy'
p144
I2
tp145
a(g18
S'1LoR6SWUoGmWYDP8gs4UQtApAeRUgicL4W'
p146
I2
tp147
a(g18
S'1NqMFCqS2FXXYiKxfwGXhiFXGTR7eW4gKS'
p148
I2
tp149
a(g18
S'1DWmKJpKKAb8BaaCeYmHdZ8qNPT64vfAva'
p150
I2
tp151
a(g18
S'1KXe6gW13zRANacV9XTahYKq8XZ8rAckYS'
p152
I2
tp153
a(g18
S'16STKEHVkFUimTnqghd7G49XUgzvNqX3cn'
p154
I2
tp155
a(g18
S'14ouPE7phSoYyzaBSAKa8gr939jAbEpyk7'
p156
I2
tp157
a(g18
S'1DWmKJpKKAb8BaaCeYmHdZ8qNPT64vfAva'
p158
I2
tp159
a(g18
S'1CiWGbc8K9C2mG2D89DNKRZsXYbSJuVhbh'
p160
I2
tp161
a(g18
S'14ouPE7phSoYyzaBSAKa8gr939jAbEpyk7'
p162
I2
tp163
a(g18
S'12X8a71NqDbDmVyHi9B1N1b3DBAYH5453m'
p164
I2
tp165
a(g18
S'1B3wUEQmu8GJm4pV8BPbQzwYs85yPW7BbM'
p166
I2
tp167
a(g18
S'1CiWGbc8K9C2mG2D89DNKRZsXYbSJuVhbh'
p168
I2
tp169
a(g18
S'1PpYquvqneF47MuJsrBtTXi5cN7vNGeU3C'
p170
I2
tp171
a(g18
S'19oq1MHBhBXAdKEHVWrMtN244mZ9Tcwr6K'
p172
I2
tp173
a(g18
S'1LYQXoDR31xGPWhWi8tP9bc3K4HH16CvAm'
p174
I2
tp175
a(g18
S'1PCNRYycB15oh9L5pD7BHVd2axyZmzwfNJ'
p176
I2
tp177
a(g18
S'17JUQU1voxacc6m9Xu1sJtaKhuUCAVjjS7'
p178
I2
tp179
a(g18
S'19ApNhxSXKUrhNpoPyFveDq7Y7HUyC4qgs'
p180
I2
tp181
a(g18
S'1MPDFQZekoGgtK8PX6i6xsLQfMG7jXk2nC'
p182
I2
tp183
a(g18
S'1Q9PyjqYASzHde9mzcrKXeSL6czgwQEfY4'
p184
I2
tp185
a(g18
S'1Dx2Epkfpnqfv85rupSh92JpXVEet5YxBa'
p186
I2
tp187
a(g18
S'1433JRxbQLWPoHZs9mzoeCYpq9MEEgWH6g'
p188
I2
tp189
a(g18
S'1HcXMN9aLvvgNsA6VfxdMQRB33QvgBFtyg'
p190
I2
tp191
a(g18
S'18mdiWB5xCyUWJPeFWvUAgw5jbdDjSfcjB'
p192
I2
tp193
a(g18
S'1MKX4SNfsaR2UwJfrE89e5PhvcCVJdPJQD'
p194
I2
tp195
a(g18
S'1QCtvKsS9WT1QZZ1e3baQDbDBmgKrLg1XB'
p196
I2
tp197
a(g18
S'1HP9bBuGAPBepwZdXi6QBkh5jS7amQ7Jmv'
p198
I2
tp199
a(g18
S'1EU8RaWaMFQYk6n3jtwjdYRak2nKpmURdD'
p200
I2
tp201
a(g18
S'1P9VxBkT6R1Evd1rzfhRxdYV72D3BcVwJ6'
p202
I2
tp203
a(g18
S'1LkVt3JtSmZiTDrinmBbYSEgciw98ngYx1'
p204
I2
tp205
a(g18
S'1Muk74Xx1Xi5rCyUQPfor29SUJsYCAJNQ2'
p206
I2
tp207
a(g18
S'1ERFCNpuomRHdWiBW5zmohhHCvYdh8w7Vt'
p208
I2
tp209
a(g18
S'1NFFC96qoGomNfyXKGiooxfBuurK6PhAVG'
p210
I2
tp211
a(g18
S'1JtctqyaFrSUw7pQEU7n1Ejb4gCW77qbq7'
p212
I2
tp213
a(g18
S'1JxGkkXNPWUiKMZDJZMaH75onoW8p1brUJ'
p214
I2
tp215
a(g18
S'1hSN6Vz698nGcGj6dotcEzk6KscR1Dbq6'
p216
I2
tp217
a(g18
S'1Hm8msEnQKCpUfaCLqSBJkRCcbbFYFDUcq'
p218
I2
tp219
a(g18
S'1LNFWmj6WKM1h39nEGKnjdyfHGXgNRyHSz'
p220
I2
tp221
a(g18
S'1EuNc3rFNETsD6XyURRTwyvsymVKNmWHAu'
p222
I2
tp223
a(g18
S'1C39nfKCpX4QzD2LGe64Ej99jF6UUkQcG'
p224
I2
tp225
a(g18
S'1PQi4P4Q3VgZHrHiVjKmxZtoRLgiNbFmcn'
p226
I2
tp227
a(g18
S'12TVuVkRDvnP5vycJZWR84YLNJQfHwcPuN'
p228
I2
tp229
a(g18
S'14oY49UtRu6wZY2HmzaM4uLfabCrG9pFMh'
p230
I2
tp231
a(g18
S'1AqwMuKJKxmRn8UrQsT3bUnbpJVgaNL9sF'
p232
I2
tp233
a(g18
S'1Muk74Xx1Xi5rCyUQPfor29SUJsYCAJNQ2'
p234
I2
tp235
a(g18
S'14sF81WemisnoYv7oSkc4cL2o9gmAV5ixy'
p236
I2
tp237
a(g18
S'17rEVACMMK1bM3TsjWDSFL9RZJ3vhYKRNo'
p238
I2
tp239
a(g18
S'127qiLbD8DF4EkXZYCe7YKQk4dwSkQ4N2Z'
p240
I2
tp241
a(g18
S'1AddDe8oazYwqKZHutgsgL2RCap3Kgqq4U'
p242
I2
tp243
a(g18
S'1KGX5HTEh29bBeSkrzZdzbjL1nC4afCW9p'
p244
I2
tp245
a(g18
S'16aX9Y4aF97wEfGj8adK6EeHRA2DzwUS6J'
p246
I2
tp247
a(g18
S'14oY49UtRu6wZY2HmzaM4uLfabCrG9pFMh'
p248
I2
tp249
a(g18
S'1Fq8qXYW69EEjE41jHanYdVsxeNhExNTaT'
p250
I2
tp251
a(g18
S'1BaMYyPz4CqrakpDaR5WpFqqUy6UmA2pHv'
p252
I2
tp253
a(g18
S'16aX9Y4aF97wEfGj8adK6EeHRA2DzwUS6J'
p254
I2
tp255
a(g18
S'1NQejp1aHoETQe2zNv4hicy4FRmsdc7DPQ'
p256
I2
tp257
a(g18
S'1C3EqPYPWtG5Md9m7A9XBBqkovqEGvvy8T'
p258
I2
tp259
a(g18
S'1BHQ8ZdVkYVAhBjnHbva5iyaiT5RCkL3iK'
p260
I2
tp261
a(g18
S'1BDucQXAM6kEuM3JSXRkjZVcNG7ifUxpi1'
p262
I2
tp263
a(g18
S'1Aj9HWZL4Dy3twK8BjhySFZv6MAXwfXgo2'
p264
I2
tp265
a(g18
S'1MPDFQZekoGgtK8PX6i6xsLQfMG7jXk2nC'
p266
I2
tp267
a(g18
S'1DNZVjgRAhSbMMC5a17vJpRT4CQExrQkLN'
p268
I2
tp269
a(g18
S'1ACLPznYLCPyh5uKbvwyNEgbAe261WwxvF'
p270
I2
tp271
a(g18
S'1AoQk3Neu7ttvaf6XKFMjNyUMBoKBgFJxk'
p272
I2
tp273
a(g18
S'17artq84hyEmmD4G8jV2AS5Rm2dhEowyT'
p274
I2
tp275
a(g18
S'15RjKKF3kB7KgWDv1nTYEH5MtiUtNRLDPB'
p276
I2
tp277
a(g18
S'1Fq8qXYW69EEjE41jHanYdVsxeNhExNTaT'
p278
I2
tp279
a(g18
S'1HHbcTL6J2adwsn6uD9GTvX9FR1fxfcziX'
p280
I2
tp281
a(g18
S'1ARJQN2Vto2BU6uSztiGhvZRpirDDBdpLj'
p282
I2
tp283
a(g18
S'15RjKKF3kB7KgWDv1nTYEH5MtiUtNRLDPB'
p284
I2
tp285
a(g18
S'1C78UbFzRbo23UQrHfU55yNWi7w9H6vPP8'
p286
I2
tp287
a(g18
S'1Co2keCPYTbToxYeXVnYDx3fHq46Jb4awY'
p288
I2
tp289
a(g18
S'1HHbcTL6J2adwsn6uD9GTvX9FR1fxfcziX'
p290
I2
tp291
a(g18
S'141q6BDMVJha38ow6Ttv27zwz89pC3CG15'
p292
I2
tp293
a(g18
S'1q1VSzmU7hjW4XYE3BCx1ybzoEJNejCCz'
p294
I2
tp295
a(g18
S'1C78UbFzRbo23UQrHfU55yNWi7w9H6vPP8'
p296
I2
tp297
a(g18
S'13FwbSoszH6QjivSAE5frBeN9rJGqiH15S'
p298
I2
tp299
a(g18
S'1KeQyMkjesZaZ4xNDZSUd1S1RCvoBZXki3'
p300
I2
tp301
a(g18
S'1DfUyY7WEs8pgaqnbryZ1UzwCRqKRTVEAp'
p302
I2
tp303
a(g18
S'141q6BDMVJha38ow6Ttv27zwz89pC3CG15'
p304
I2
tp305
a(g18
S'19yWrYBtfqC9nNjnRxTv6aVDj6k1FX5iwf'
p306
I2
tp307
a(g18
S'1CJq7i5eCZacDUh2EVZQUhhSVdQZnnhTxR'
p308
I2
tp309
a(g18
S'13FwbSoszH6QjivSAE5frBeN9rJGqiH15S'
p310
I2
tp311
a(g18
S'1w5psTFzqcXK5qnDmK2fEjgvKtNY1nZSB'
p312
I2
tp313
a(g18
S'1HP9bBuGAPBepwZdXi6QBkh5jS7amQ7Jmv'
p314
I2
tp315
a(g18
S'1DcENToxYgMi2wqW2dCr7VxgbZLecaELH1'
p316
I2
tp317
a(g18
S'1MpxXLYZ98xdwZQ1XNUJz31sAjCdcXmVx'
p318
I2
tp319
a(g18
S'19yWrYBtfqC9nNjnRxTv6aVDj6k1FX5iwf'
p320
I2
tp321
a(g18
S'1EFQMTTE6fqUX8WPLB9pRiVcFqZMmN8rDs'
p322
I2
tp323
a(g18
S'1HmbWdgAJw3XT3rreTozc1YqTkbCeUnxEW'
p324
I2
tp325
a(g18
S'1DcENToxYgMi2wqW2dCr7VxgbZLecaELH1'
p326
I2
tp327
a(g18
S'174BmLF6fgRp2wubsqQkJG7T4h9GMNC242'
p328
I2
tp329
a(g18
S'19A51tjqDhEuDZoFZ8E4kRQJwqvCW1Wy1e'
p330
I2
tp331
a(g18
S'1EFQMTTE6fqUX8WPLB9pRiVcFqZMmN8rDs'
p332
I2
tp333
a(g18
S'12ZF1CsM1KwsDrimgKNGVik7xjSVxRyBts'
p334
I2
tp335
a(g18
S'16Wss8xkV7Ty9ni2Pc1QiaRiWPSsiXXwtj'
p336
I2
tp337
a(g18
S'174BmLF6fgRp2wubsqQkJG7T4h9GMNC242'
p338
I2
tp339
a(g10
S'1Mr3kEFgjNPn7iFMtUFCt4dBXdFZfX6AfU'
p340
I1
tp341
a(g10
S'1AB6k6jfajmC6Mm2uMn4BZtp99gHJNcJzA'
p342
I1
tp343
a(g10
S'1MPZsccLaYBh6Vd7LxjbSzbemyE683ueZh'
p344
I1
tp345
a(g10
S'1Q35gpwWiQaU5G47eRGduRwiznmMRmnDdT'
p346
I1
tp347
a(g10
S'1NpEhhiFUPXKTtk2DxBT4nYVxq9vmeG11V'
p348
I1
tp349
a(g348
S'1E9JJa3dHAFJLJGhRH2dL4ikHbF9QLNSAj'
p350
I2
tp351
a(g348
S'172eZxPugtRA7yBLkNCSCXuyfcZx2aGHjZ'
p352
I2
tp353
a(g348
S'18opDydV9ppECMoHtkVASJyCDTzdxhgq5q'
p354
I2
tp355
a(g348
S'1L28BSdgHwP1E1dexkLR2VegU3qfmXVwrp'
p356
I2
tp357
a(g348
S'1FnTFGdETqwZ5scL2Y74MyQYr1H17a46BX'
p358
I2
tp359
a(g348
S'1Q35gpwWiQaU5G47eRGduRwiznmMRmnDdT'
p360
I2
tp361
a(g348
S'15EAyx6ZXgsDRQ4y9yhaCrdkQiuTx8ej57'
p362
I2
tp363
a(g346
S'13jZoMpCKiXiXHDvMVtHcpFwMQU21hnRe3'
p364
I2
tp365
a(g346
S'1ChGJKvYWAi4hYd6DA3XGDBxyd7K9sUKKy'
p366
I2
tp367
a(g346
S'1BPko5icpXKN7zhMPUfPos1pEm81JXtunx'
p368
I2
tp369
a(g346
S'12ohANVUd9ZoyrF5PneYVQfPXQidjM7VRP'
p370
I2
tp371
a(g346
S'19672xRP3ck8YhbQ93zXMsoFNwahrRS1Wh'
p372
I2
tp373
a(g346
S'1U4KR2pSCnVoYDVe2SebtHDHfQ8GfKJU4'
p374
I2
tp375
a(g346
S'13f4X6jca3pzGUTgJAXZCv3oLrowcG4Hp3'
p376
I2
tp377
a(g346
S'1QBtcCSK8ueJP7tbQUnjjnsUnF1mZgCrSH'
p378
I2
tp379
a(g346
S'19d8zoSG1iJPmBiC6H5fSgC3EdVLLcFSBq'
p380
I2
tp381
a(g346
S'1GX12oDJJFPpd1vUWAGMejzyjLWNuUrRjv'
p382
I2
tp383
a(g346
S'1AsqGWoSFAA2rWPuk9RW2xsNcN2UhduEEd'
p384
I2
tp385
a(g346
S'1GNviKnhnraTHERibm4zknfcWfnUHdGtVM'
p386
I2
tp387
a(g346
S'1FwX3eUWnS73okjrMGADgAu7EpUAneVqNn'
p388
I2
tp389
a(g346
S'1KVLwM3ZSZdTEB5WUo5Qtz2ww4J9rcnq4S'
p390
I2
tp391
a(g346
S'17tvQJKphJzrhc991UyF5fq9A3af2aA287'
p392
I2
tp393
a(g346
S'16gGWHUMTUny7iCyN8uap6o28g6AqTruDs'
p394
I2
tp395
a(g346
S'1JQEGJSLAP1tQaK6sj1XuQQ7JcFsFHuDUx'
p396
I2
tp397
a(g346
S'1ATgENmJyfHmHmM9yzfvEuh72vftb1qi9D'
p398
I2
tp399
a(g346
S'1CSpj3FnMEf4bDJHtkZRYqApWuiwkJekQZ'
p400
I2
tp401
a(g346
S'1CPa6h9UZ38wvj94LgBZk4DaVad5W5rVHz'
p402
I2
tp403
a(g346
S'1GA6WjgX8CARm4PdQTBjSDj5AmUfnTwuM7'
p404
I2
tp405
a(g346
S'1bVi8bTQCZemWLjfQVvSJJdZxAjbbivUM'
p406
I2
tp407
a(g346
S'19e8gb7AKmuCUVA8ccaydpboRcfpxmpJVu'
p408
I2
tp409
a(g346
S'12HSrZM9LamTgTAbxEsE3DnBxY9cNVGYBQ'
p410
I2
tp411
a(g346
S'1D9Y1Q7JTeKijhzJ9WFnBGASvuXa46HrGw'
p412
I2
tp413
a(g346
S'1Mj6sPdj5VV5fE1Hc7cZx8zEBzBE6g3PZn'
p414
I2
tp415
a(g346
S'1EaWvWQbMDfrvapMu1StwWMUjp8RyTh8S5'
p416
I2
tp417
a(g346
S'1MLQgpoaKQ7aAJYsy9RvqRRoTKxMUo5KLZ'
p418
I2
tp419
a(g346
S'1JB42hxur4TiBDdUFY6ipdFCAjAKHbauHw'
p420
I2
tp421
a(g346
S'166E1uGX3VJLXTypJDVChvsXo2efVj4FTu'
p422
I2
tp423
a(g346
S'19LvYKj5z3349NvjwWs8oLuaBLu3W7ejqM'
p424
I2
tp425
a(g346
S'1J6yCGi63pWaqh6fy1QMsEsiLkjWbaq6CK'
p426
I2
tp427
a(g346
S'1MJbca3znTvcjyMPKHe3mhCtx1Ue5hk2rx'
p428
I2
tp429
a(g346
S'1CyaWULq3w8aYHk1VuEtXxi29hbrZfussd'
p430
I2
tp431
a(g346
S'1FH5a82rcPqteZeEVnvs6E4pijRmTxuMdV'
p432
I2
tp433
a(g346
S'1NpEhhiFUPXKTtk2DxBT4nYVxq9vmeG11V'
p434
I2
tp435
a(g346
S'15EAyx6ZXgsDRQ4y9yhaCrdkQiuTx8ej57'
p436
I2
tp437
a(g346
S'12sD8uqdpjLcmkLkCofcQi2RkPBLcDCFCq'
p438
I2
tp439
a(g346
S'1CyaWULq3w8aYHk1VuEtXxi29hbrZfussd'
p440
I2
tp441
a(g346
S'16k18dTfp8oSX3qHWsfv9S9EZesDoPdmnx'
p442
I2
tp443
a(g346
S'1DJTvyW7w4nK1JLfYQY2g6gy8YgagpYxC7'
p444
I2
tp445
a(g346
S'12sD8uqdpjLcmkLkCofcQi2RkPBLcDCFCq'
p446
I2
tp447
a(g346
S'1Nw1uHApaLfsq8cnTtJCMpr3cmdinmL9ve'
p448
I2
tp449
a(g346
S'1D9ywkoDudjLKTDVJcJkq4nCVnkrrYXXdx'
p450
I2
tp451
a(g346
S'195VEvoyFPDUD5gP9ExDSoQEzZKfgPs2eR'
p452
I2
tp453
a(g346
S'1EpC2C1K6PoUGmojYEHTdjmTVUgUzT7AQ5'
p454
I2
tp455
a(g346
S'1FH5a82rcPqteZeEVnvs6E4pijRmTxuMdV'
p456
I2
tp457
a(g346
S'1DJTvyW7w4nK1JLfYQY2g6gy8YgagpYxC7'
p458
I2
tp459
a(g340
S'15EAyx6ZXgsDRQ4y9yhaCrdkQiuTx8ej57'
p460
I2
tp461
a(g340
S'1AB6k6jfajmC6Mm2uMn4BZtp99gHJNcJzA'
p462
I2
tp463
a(g340
S'1MPZsccLaYBh6Vd7LxjbSzbemyE683ueZh'
p464
I2
tp465
a(g340
S'1NZS9XXzWAhnjc3t8JfdEziMnJ46tdu3FL'
p466
I2
tp467
a(g340
S'1MgGhdPqBzuy9XK1be7QNJWEj5mKUPP9Rk'
p468
I2
tp469
a(g340
S'1MPZsccLaYBh6Vd7LxjbSzbemyE683ueZh'
p470
I2
tp471
a.