(lp0
(V1CT6H8BRL9nJdL4Uf3GFXYUH7Bjxk5cTfX
p1
S'17TZVzADiXoCchN4yTs2KRcwfBMVJ8qcdw'
p2
I0
tp3
a(g1
S'158f4APDxW7JAZEbZsQeaaeFBxT4EYVma4'
p4
I0
tp5
a(g1
S'15eiCiBNQKVLT3oFw2JV2TAm5NACChJEci'
p6
I0
tp7
a(g1
S'15eiCiBNQKVLT3oFw2JV2TAm5NACChJEci'
p8
I0
tp9
a(g2
S'184JDdBQFu95qPfjE5dvz1RDSimuAAfbts'
p10
I1
tp11
a(g2
S'1KF6bSqDLXCZu7mk5sYrUpzEwDgfS4jVme'
p12
I1
tp13
a(g2
S'18JHBBxRDzejT341MWk6A2vu9k7uJQj1jm'
p14
I1
tp15
a(g2
S'16FSQwWijruJhgY74Qrt6T1tBMeF93tiLb'
p16
I1
tp17
a(g2
S'17zcEBx2t5jJDf9W6pDs8tkNjxmoGVdLNC'
p18
I1
tp19
a(g2
S'1CT6H8BRL9nJdL4Uf3GFXYUH7Bjxk5cTfX'
p20
I1
tp21
a(g2
S'158f4APDxW7JAZEbZsQeaaeFBxT4EYVma4'
p22
I1
tp23
a(g22
S'14kMrGTDHNHAMP8zwxbZCBhMdq1WWXFiGD'
p24
I2
tp25
a(g22
S'124fyw99e3VC9uWZTrBtKQ19SGtbwaJT2A'
p26
I2
tp27
a(g22
S'1Q47f2ELDbhVsVLbN99SBezsKrorqyHnfJ'
p28
I2
tp29
a(g22
S'1LoQKZjpNfmrnafhpitxkK2tDzkucJekXQ'
p30
I2
tp31
a(g22
S'1FyZU66p35h2gJ5AYeksV8qkxGJApv9X1V'
p32
I2
tp33
a(g22
S'1Exj1gRXo64rD4ztTrR7mPJCpvB5jYu7PL'
p34
I2
tp35
a(g22
S'1EFq2qGyHNTKKT6Kot9eX8yaZZR3cpWoHY'
p36
I2
tp37
a(g22
S'1NqDkWttEKks5ZxrFKZXdTnrBn8iZEReux'
p38
I2
tp39
a(g22
S'19eZH8yD5Ln9mtvytinZxZYZewigaeA6wj'
p40
I2
tp41
a(g22
S'171JkkpM8GH7gznpyfoUHkvcpCmrGdTte7'
p42
I2
tp43
a(g22
S'12Hhb5Qzpdp2dmHoZUrQELHGDdZs2JaQeE'
p44
I2
tp45
a(g22
S'1DQHAETnjPmgcMPTw9AntvXLrHZCwwTS2H'
p46
I2
tp47
a(g22
S'17hxPj28HwZiqJhKPFyAntQKcM3FR9nrUu'
p48
I2
tp49
a(g22
S'14jCU7EvNT87VTmV8kqcPS9BS3uoWn9P2w'
p50
I2
tp51
a(g22
S'1NDoN3dE17STXwvu8CGa6jL1EFuZRKpubG'
p52
I2
tp53
a(g22
S'154GcgUBTEBaUNqn4N816bgXYf1FTbJmBz'
p54
I2
tp55
a(g22
S'1CT6H8BRL9nJdL4Uf3GFXYUH7Bjxk5cTfX'
p56
I2
tp57
a(g22
S'17TZVzADiXoCchN4yTs2KRcwfBMVJ8qcdw'
p58
I2
tp59
a(g12
S'184JDdBQFu95qPfjE5dvz1RDSimuAAfbts'
p60
I2
tp61
a(g12
S'17TZVzADiXoCchN4yTs2KRcwfBMVJ8qcdw'
p62
I2
tp63
a(g12
S'18JHBBxRDzejT341MWk6A2vu9k7uJQj1jm'
p64
I2
tp65
a(g12
S'16FSQwWijruJhgY74Qrt6T1tBMeF93tiLb'
p66
I2
tp67
a(g12
S'17zcEBx2t5jJDf9W6pDs8tkNjxmoGVdLNC'
p68
I2
tp69
a(g12
S'1PYknYon3GeRUPZzqnFRvt6cGL5p9g2fva'
p70
I2
tp71
a(g12
S'1ALzEGMCU5EmycJZVCpAymXEaUVkV3V2cp'
p72
I2
tp73
a(g10
S'16kTahAmPiCjj7hHW1DX6SJQwMT82ECeEc'
p74
I2
tp75
a(g10
S'1BpSJ4ySuJ8BmmeHwg6ADXsXjUqtzgx45W'
p76
I2
tp77
a(g10
S'18LtD7KWRfW1iAdnFkNHNVDriFZhq3rUBg'
p78
I2
tp79
a(g10
S'136LUvQxutMHrduceqMGjYNQecRFUjTUFM'
p80
I2
tp81
a(g10
S'1MX1Nza3eJP2k6fzagt8WZbcnu3C9xXQPT'
p82
I2
tp83
a(g10
S'1E9jAPTLBEckZySk96i52PgkLdDtq9neKz'
p84
I2
tp85
a(g10
S'1MsfsM6SS4ajtvqc9WNoBECixJCuZPmLBx'
p86
I2
tp87
a(g10
S'1KK3j4Mq1oZM6rTM9u5acpj2vChztaDEfH'
p88
I2
tp89
a(g10
S'12NAAAU77jwMVjBRZ8FwNAG2dWEVvm6zsa'
p90
I2
tp91
a(g10
S'1NFerFZM6qUTxWAmMiqcxxyQwPs2xM5zM6'
p92
I2
tp93
a(g10
S'13NgSJ9SJe6cEg3RMsBSWj2zjxXfxPUpNa'
p94
I2
tp95
a(g10
S'13QaKqxduSSYyzmjv1Y9ZJ2rAkN6iqkjxx'
p96
I2
tp97
a(g10
S'12FCXbug4m7iQURSvxgKMhZrLJAWArNYMF'
p98
I2
tp99
a(g10
S'1EzZMU6cd1A4LSdMpD5on8RFdMdaPLZWBd'
p100
I2
tp101
a(g10
S'1MZ6XqaxXE6qYGCcPFhroirvpKLXvav4GX'
p102
I2
tp103
a(g10
S'1MfN6SZy9D4dic8zQ8mp37ypoZxEsHNU4m'
p104
I2
tp105
a(g10
S'16yKSHjaDJ3fbKvp6EMd2vemmVAGQiAhwu'
p106
I2
tp107
a(g10
S'1C7sAgR7fi23xKtP3VqEMzDwpCdxP3YwCm'
p108
I2
tp109
a(g10
S'1KqNNqkxgpq41homqYe43o61u4xZYy7pan'
p110
I2
tp111
a(g10
S'1CQA6aqQ1Jp7q6oG7G5zVexZVs6RuJgUuR'
p112
I2
tp113
a(g10
S'19b3mnJP2t27wLWb5NEUGjiA5VLAdnkVin'
p114
I2
tp115
a(g10
S'1HVqMqkcRxEsQEAYZc3rsM7rYVXwVuUJmE'
p116
I2
tp117
a(g10
S'1P79YfQzvsg5RDBQ56vjc6RNumSVeHYpxM'
p118
I2
tp119
a(g10
S'1KZrKPy4rqjzXf5JiSupXEVrkAHpqM3fFg'
p120
I2
tp121
a(g10
S'19jrVBpt7vEhGZ1BkxRayaH6aQU7qvnUV8'
p122
I2
tp123
a(g10
S'1DVLHgDYS1zJQXWp49jQgTg35YEdf9b9xr'
p124
I2
tp125
a(g10
S'1BT3s4H5WcGrTezWa7Vymu85Who3sDo7VR'
p126
I2
tp127
a(g10
S'1M9ffbAPnzdFTxK9mkyn1AQSworMNmzj3V'
p128
I2
tp129
a(g10
S'1EWgXsRt3tFRLFutdDpD1kZoFqy57WPRUF'
p130
I2
tp131
a(g10
S'1BToohQmRbE3Qgwz5DBqeWUn1RyLqNLAgN'
p132
I2
tp133
a(g10
S'1KmnqV8JyGQLqZ98we9n41nYGLsigqhkvE'
p134
I2
tp135
a(g10
S'1Aawhvvhv7ehFtNaUzTLzSqCCSEX4WFiTD'
p136
I2
tp137
a(g10
S'15GkLQHLFewWpe1TxJmBSiAtQEpFAqLrxT'
p138
I2
tp139
a(g10
S'1NbDKFAgKSLmvoNYam9hD4Tfm8KPPtjDVq'
p140
I2
tp141
a(g10
S'1QATnsxetyxxw2sjRzk5JWzD3oS14s3atF'
p142
I2
tp143
a(g10
S'17v8NZxT6574xfnJNihDCqVtKJRYGYpaPo'
p144
I2
tp145
a(g10
S'12F8AGfTUfJzj12jWQPYBztyS1N8oWqgZQ'
p146
I2
tp147
a(g10
S'15kf4AVhHu5MBeHYbWBTPiWor6SJofFzXz'
p148
I2
tp149
a(g10
S'1NkThg53Aeb7wTd12QgoRPbbKyREGf2D2t'
p150
I2
tp151
a(g10
S'1Ng6JTL8LnSG6W9Up33P59gm3QWZe3kqCK'
p152
I2
tp153
a(g10
S'1NrjhZncfgQnRvLoGWnfir7UFAKTnLXkW1'
p154
I2
tp155
a(g10
S'15kf4AVhHu5MBeHYbWBTPiWor6SJofFzXz'
p156
I2
tp157
a(g10
S'1Nk9oMkvmRD6p14qoLvVPq9dHXsdnnij68'
p158
I2
tp159
a(g10
S'16NMqgy696794AXPyujykAua9ZZCKQqjvY'
p160
I2
tp161
a(g10
S'18uxdfzeP83GJhLCoRpjiptUsBg9BVofz6'
p162
I2
tp163
a(g10
S'1K3uxDA3ES2nBSXtpMrt4g2enN7DzieK7F'
p164
I2
tp165
a(g10
S'14jxnAoKjvTHUeAr6A1EjZfk8UezDAWpta'
p166
I2
tp167
a(g10
S'15ac4iqtrWJfGR1qDGkrh7DzPRWzTi2jEg'
p168
I2
tp169
a(g10
S'1NB2QLCuABBMeRnH9j3q9RAwxjqSnGBpwU'
p170
I2
tp171
a(g10
S'1NB2QLCuABBMeRnH9j3q9RAwxjqSnGBpwU'
p172
I2
tp173
a(g10
S'1NB2QLCuABBMeRnH9j3q9RAwxjqSnGBpwU'
p174
I2
tp175
a(g10
S'13F5YUkDqV2cKWrrMSKDcKP9fVGB1xqMwc'
p176
I2
tp177
a(g10
S'18nCxGKLR6nstT1bjQ8gFPV2hKktshZuZP'
p178
I2
tp179
a(g10
S'1LMrDARTUupCoT8iK3MAZpmJJU9fkU3bEe'
p180
I2
tp181
a(g10
S'16hdzmFRQsi3Zi6V4efxTUuYbW7QqWPYmu'
p182
I2
tp183
a(g10
S'1CMsBAffrpgvfRN43WtbNfSjut8rQidvDC'
p184
I2
tp185
a(g10
S'19AoEBiK6setzSSKvd1sSXYJk1puj8DZx6'
p186
I2
tp187
a(g10
S'1L1XRRcBsg8RZkTSNMvKgMmZ3ffaXZZWxd'
p188
I2
tp189
a(g10
S'1FCFmZBJSeBTfGZQSjgRe4UNN6b7n58VkF'
p190
I2
tp191
a(g10
S'1CJM756tPGycwhBScZ4RzGYs5ZgmF1TWcM'
p192
I2
tp193
a(g10
S'1GTLmwzeGa8UkTWBvXb4r44fujFthQy2kD'
p194
I2
tp195
a(g10
S'1Feri6NgHpGon6ShcM1L9gk5iQMBM54j3Q'
p196
I2
tp197
a(g10
S'1Jpv4C4f3vL8uxwUFpnFkJTeCeq7UtqtYn'
p198
I2
tp199
a(g10
S'1LnoD2H4BWNKbUFgVRJ8dm1pJWMPgqMj5k'
p200
I2
tp201
a(g10
S'1ECAATuFkv5Xn7CSg85FkMjvFBPf4c9LTF'
p202
I2
tp203
a(g10
S'13kxQt4RRnocEggbaCJhDpSJYDtLFejvVL'
p204
I2
tp205
a(g10
S'12fdYKf9Xc1gGsWr9EKEVdJbFXmHGQseV7'
p206
I2
tp207
a(g10
S'13wFqXS16dB6iFwrfvoQKEREHt48zwLDnW'
p208
I2
tp209
a(g10
S'1D4StYiWRqXdA8LaEJU4ZZX4z9qdzmJGax'
p210
I2
tp211
a(g10
S'19DYujri7kX79WwtJ1bEd8Zp843HnLWTjs'
p212
I2
tp213
a(g10
S'1938vmqDeikNug8t41PEdYnkqQnnWvmLE'
p214
I2
tp215
a(g10
S'14iAvzfS3HUbeqr8RRBKZARabePjyLPqC4'
p216
I2
tp217
a(g10
S'1NnDtAzCxGcTbU9ouZ8kgDPpXRUCNgSBKP'
p218
I2
tp219
a(g10
S'16RobLpVAqaMCZvg5KHLUJc5xejr42er3Q'
p220
I2
tp221
a(g10
S'1DkKWg3KXzewKB7vACwmg5oTXEiLKW59Dq'
p222
I2
tp223
a(g10
S'1FBHkoAod3ish6BAYA85MAd6zLEsexZ1P7'
p224
I2
tp225
a(g10
S'17Lznx6XjEVHKmNtbXfbb7vg1aqAxZLa5K'
p226
I2
tp227
a(g10
S'1PQPinwcJA6wN4DQC65mQ9mvzMYdLSm29A'
p228
I2
tp229
a(g10
S'1LjQMXUAkZ4s9MTrhryM7mDgxjuYRPVXwu'
p230
I2
tp231
a(g10
S'1DJvQfQGiVDG5reXTpPxvDfa1jo7qqGCs8'
p232
I2
tp233
a(g10
S'1JPAHhLvVzKkmy4NsdRnrv8vFzZy6W1XWs'
p234
I2
tp235
a(g10
S'13PU2tKnFSsB6rUzjfFmGTBFmgJkHMJy6B'
p236
I2
tp237
a(g10
S'1W9NFVnpiZuqVUBnNmTL2W87ExxbSJzzn'
p238
I2
tp239
a(g10
S'12xefh18GzBM5L6UgXMzaofxpFrfZfiMP3'
p240
I2
tp241
a(g10
S'1EqEKvytPsuT7bvZMBY9c4XZmy2DGikMhh'
p242
I2
tp243
a(g10
S'1KU8S6Huo3SBDNqcNh7Qv9PxwZajdFh8Hs'
p244
I2
tp245
a(g10
S'1BNZvmjcdqMx2fNA2u2pkTbvsqux8SrUAB'
p246
I2
tp247
a(g10
S'1Dp9bPNFhoZyB7Q48YMfaZRu5b73scNAtx'
p248
I2
tp249
a(g10
S'14XUNUxEGeSzA6GPkUTamJeyA6nHnPtYtV'
p250
I2
tp251
a(g10
S'1GMfNLrLCgswsVw28QMxK4d7D8wCjnzoL5'
p252
I2
tp253
a(g10
S'1MTtSmzFnvsBNMEzmnN5GuDqZKxtRfqNZ3'
p254
I2
tp255
a(g10
S'16F2QVUAZyBS4ooWwMvqwft8oNFT1CZLQ5'
p256
I2
tp257
a(g10
S'19AoEBiK6setzSSKvd1sSXYJk1puj8DZx6'
p258
I2
tp259
a(g10
S'1La85S2hKTyb8azzsbLohiZPsdzALsR2yC'
p260
I2
tp261
a(g10
S'1Ax5kij2pkPMdwku8VDqBbNMWPj7wDjMh6'
p262
I2
tp263
a(g10
S'19PtDwW7LBVMZaGsXzUTyToBoJriGhCHBb'
p264
I2
tp265
a(g10
S'19PtDwW7LBVMZaGsXzUTyToBoJriGhCHBb'
p266
I2
tp267
a(g10
S'1Jy6FC2paXM7ZojDJYJkHjnhDM3gdKFsJm'
p268
I2
tp269
a(g10
S'19RK3zGNqNoKrvLfuY4yAZQLoWC5yansSG'
p270
I2
tp271
a(g10
S'1KuYUYNtGkyezWjvqAyvw4YQpu9da3Efr7'
p272
I2
tp273
a(g10
S'1JpNkNUTS3oYTCc2G2iR3voNLhW9GNGpo2'
p274
I2
tp275
a(g10
S'1MKqqJdu1izjWFjjLFsTvR4VDL46G87vVP'
p276
I2
tp277
a(g10
S'1MbG5pru1wA7Fc2hy9cxV4eaCwEwbP9Rjx'
p278
I2
tp279
a(g10
S'1483NRP3JZNEGzuycm2SwPekK32qCzvMi5'
p280
I2
tp281
a(g10
S'183qVNmnRMq8G5u8jmkGLXkzRGNTKA49SA'
p282
I2
tp283
a(g10
S'1MoxpdimZ3N216Tz1UNVCQLumtg82ZE1v3'
p284
I2
tp285
a(g10
S'1ChZVWdt9mRV5j7Bnm7A3LXzYf14gSsDV5'
p286
I2
tp287
a(g10
S'12XnKvtgqaiAPNdBtQsnVLToAfg9kWgbqs'
p288
I2
tp289
a(g10
S'15LNtu6vUnChD6AfA23qbnbPFHwSgoibpq'
p290
I2
tp291
a(g10
S'1HkKfBLgqt1CMtcgBfm9N2EK33sS9tE8Ny'
p292
I2
tp293
a(g10
S'1FtS99pxcRhjGV99X5ZvqDP15Xb16GjS8Q'
p294
I2
tp295
a(g10
S'1LEmRNgzWfBcUJwHGCLGWme9mmCdg3aMXA'
p296
I2
tp297
a(g10
S'1EVXBndDVi2C7xBqFQ2jZ5QYccbw1N9AnJ'
p298
I2
tp299
a(g10
S'1MLivySeTuJDMvJ7XQyqSHEVFiqdcKKwb4'
p300
I2
tp301
a(g10
S'1p9WUwN6tJ7CTn6o4MbPoYhn8ZdXz6UvQ'
p302
I2
tp303
a(g10
S'1LYe3zuVsvzkg8tsuEMtyibfMBjgMAgjTZ'
p304
I2
tp305
a(g10
S'17yA2LwhwX2XwyBqNk4xLfkHCytdGv6C8v'
p306
I2
tp307
a(g10
S'12rhVdGjQuE3Np57B1NWd9hVJzo4ChuRCf'
p308
I2
tp309
a(g10
S'1PB3nMvvjhMoYcNapTR2YXWy6LyCUgyYMM'
p310
I2
tp311
a(g10
S'1JSQZe3UeLmRhSmAGzPhhA5zCdUKSrNAXK'
p312
I2
tp313
a(g10
S'1Au7nbHGhpsMH7YdvFoM2mbfbVCzRQ8gVT'
p314
I2
tp315
a(g10
S'12uNuRwpMVqZnivnEDAuoHeySJRRmZT7eK'
p316
I2
tp317
a(g10
S'14sBWDd3zHocJipF55b87MSx6tZSSu6VKF'
p318
I2
tp319
a(g10
S'1G1SnrcWQ4KUcyaQ8kNHvcL3DQdz9ctBTM'
p320
I2
tp321
a(g10
S'1N3GLJgdzjo8dhykYHnuqAEnzqEvrzNGvG'
p322
I2
tp323
a(g10
S'1DPqmNkHhYGKShR644feuaxcBtTgBuTtvi'
p324
I2
tp325
a(g10
S'14zbVsHhpYgix9XVN7UAyQqVnFwZjoBz3v'
p326
I2
tp327
a(g10
S'15fwFMm7JAMgNVBmhqHtxhtgRhzMEAMPwg'
p328
I2
tp329
a(g10
S'14bcbBzxgkzRRXQWb39yJShNEDAvpmvyjC'
p330
I2
tp331
a(g10
S'15YF1Z4mjjEXDz2nvRwC2RaZLZ5cjrrrtK'
p332
I2
tp333
a(g10
S'12hW5KFGPs21QCJoMynfAwEi3kBVvNNcj4'
p334
I2
tp335
a(g10
S'1MgpkyE7dxVCbacXWoRFRmV1zqgYtgVvLR'
p336
I2
tp337
a(g10
S'12uNuRwpMVqZnivnEDAuoHeySJRRmZT7eK'
p338
I2
tp339
a(g10
S'1P4BUTPk3MGdGbi7ZKb7UFCxg2bwP1w3F7'
p340
I2
tp341
a(g10
S'16UVMz4G3yFASrZjfhHDsceMfiYXhD1Gus'
p342
I2
tp343
a(g10
S'1KdjwbuiNv3tpj6q76bddszZiDda232Fjs'
p344
I2
tp345
a(g10
S'18Qgr3CJJaYxZjCSsq9pqHuMwAGXmoMfkQ'
p346
I2
tp347
a(g10
S'1Ju7uCRNnHa7gvWy6FgUnkPoRKsiGHUx6h'
p348
I2
tp349
a(g10
S'1JDwENNAiAbQt3BpkgSUmxt2eVPbQa4DtU'
p350
I2
tp351
a(g10
S'1J3GnD8L4dYnTbvAFZJwdJWVXdCD9E1qZ1'
p352
I2
tp353
a(g10
S'1NUs3kggoYj6J6FZf1KntTxPyH4L5rDDUu'
p354
I2
tp355
a(g10
S'1Lmq4qELi3SQpyXkZ21EQPjdVNaruahy6Q'
p356
I2
tp357
a(g10
S'1Hw3ccM4RejWNrVnQcphi5zZtLhxeo9kus'
p358
I2
tp359
a(g10
S'13vhom3WkYP2KiHa7CzEU4wk36BffRP5Wf'
p360
I2
tp361
a(g10
S'16evMXR3m7eZx6c3uxfg2wBgVPYfkc9ejA'
p362
I2
tp363
a(g10
S'12nZPVw6RX7CHvYAFdKRnin7JjyhUgwoDq'
p364
I2
tp365
a(g10
S'19wbxefJyT8h9T1AxUn5Csi21FdUT2BVL'
p366
I2
tp367
a(g10
S'183kCSiWCHcUDe6H2wpwzHNfDyhq3bF1hc'
p368
I2
tp369
a(g10
S'1E7ijxq1AfY9mfQeznK1g25xUoSqEa4ytS'
p370
I2
tp371
a(g10
S'1624t1aVtGjD7ofuk6xaqmUnVEZxkdWS3Q'
p372
I2
tp373
a(g10
S'1N1rcWN9xqccxbFVXrTP3jmqiAZmj17EnZ'
p374
I2
tp375
a(g10
S'1KEwx3rBTVq71zqCi4YkfueY1EorYqsoVC'
p376
I2
tp377
a(g10
S'19qxNTzwmp4i9y6tkDG4siQYynsy1Eb3bn'
p378
I2
tp379
a(g10
S'1JV4YVAxcSkkubzqFzEE1PMKhe6WNxEFDe'
p380
I2
tp381
a(g10
S'1GSYSA2hkUNrBUHJbcQy1Mdi9WQfcdnaZ2'
p382
I2
tp383
a(g10
S'14dC7RBjLMFMQtP5w7hdTpjiVtRErPheST'
p384
I2
tp385
a(g10
S'1MFbXCGCTBZfk5n5VFJGZLGNHySvo82pVd'
p386
I2
tp387
a(g10
S'1Dk8QJiJYJB3kNQ29sDVdF4EKthkgkzdyk'
p388
I2
tp389
a(g10
S'1LAMbSS1kPU8R8G6K2qXoeeiKgbcbJmdRq'
p390
I2
tp391
a(g10
S'1FK5vNVbptmMouSBzsBFp6jqG1JBkhCwoU'
p392
I2
tp393
a(g10
S'13ZGfJJ78LGrycNDt1BdLAFyqvD1FnMLfx'
p394
I2
tp395
a(g10
S'18z3W7mCGJM4pBKnzmHmAyKoTq5W5qDZFU'
p396
I2
tp397
a(g10
S'13aCtc4z6bBraMfcJTHFk1yZnjskaykJr3'
p398
I2
tp399
a(g10
S'1LLjVQdtXnncn9cDr9Rs5R9cQAWQjmJroW'
p400
I2
tp401
a(g10
S'192M4QHQ8tge7ehRncWkHo5VVxTMPEqvvM'
p402
I2
tp403
a(g10
S'1DjAUq5j9zM8ea5Mw2X8MsEiav4NutvuRB'
p404
I2
tp405
a(g10
S'16Znsz7TqLiMaqBaEEyiuQTqkqCXRahmjz'
p406
I2
tp407
a(g10
S'1Js7BdRdVcqMpt2xmxsRz1R6SGGxDsGQ7m'
p408
I2
tp409
a(g10
S'17Ujo8rRMi2Anqmscsdr3bWmtrjRhsQRhi'
p410
I2
tp411
a(g10
S'161xqa2weFxPwbKmyuwxDPVj3T1gVpYTdq'
p412
I2
tp413
a(g10
S'1AKkauokdx4dCDRws5cPB56UoFthQao2UH'
p414
I2
tp415
a(g10
S'1GsbUNWExDCk2gZEUtRnQbSi8EAMLxrvtb'
p416
I2
tp417
a(g10
S'1iPdysJgEUyQSkDsBU65PDWuTDwAMPXFq'
p418
I2
tp419
a(g10
S'1MAmvBY4AS2BQUa1LCSueUyXx2EudBzrzE'
p420
I2
tp421
a(g10
S'1PmVRx72sbqeMfdAemx9J8QuUyUuDZaPCz'
p422
I2
tp423
a(g10
S'1HaC23RfMhy89owLS6s1moXK2yEXjJ5gQF'
p424
I2
tp425
a(g10
S'15fUgqH2hiJy75MJYuFeLXCfbJqpK3191m'
p426
I2
tp427
a(g10
S'1A7uqfjGeva8km2Vad2GGibgpWKG99pu1Z'
p428
I2
tp429
a(g10
S'1NxA24hfHWv8QVEUWKf3KDHFWEsB8AtaNT'
p430
I2
tp431
a(g10
S'1JDBYDKC5pDmFV88aJcNxYN1f6GG7zF3rc'
p432
I2
tp433
a(g10
S'178hFSdjsgM7YpAr7DoR16skWThdu7fi8j'
p434
I2
tp435
a(g10
S'1GQSCjGM96Y89DBsEgFf7NYQhTHZBcJbDe'
p436
I2
tp437
a(g10
S'1PnWdVaSwnxHGLGWdKsbQoWv2hMxAoEAVm'
p438
I2
tp439
a(g10
S'1C3aKGDXWSjYZYC7vNc9djbfqrmqBSCwkq'
p440
I2
tp441
a(g10
S'18uxdaa9cFtk3gr6YrpbQKHhxTXLUScu2u'
p442
I2
tp443
a(g10
S'1Pw4U2kC4zZfBJPN1ccDbJiGaEJAW7kcvJ'
p444
I2
tp445
a(g10
S'1P3FpA4BBEsZ3Mys2nyy35qHBWJ8mRwQQB'
p446
I2
tp447
a(g10
S'19zXGQGLo9LQ9u3Jzy1BFk7JZiu1qR6UYW'
p448
I2
tp449
a(g10
S'1HZ9zwjUBEyEyqVsCaQMLeabHgCa3aiv61'
p450
I2
tp451
a(g10
S'18pky55XhFYHxMFd1mwteMnz3ZtTUqMC3N'
p452
I2
tp453
a(g10
S'1KqNXLJBZJUPaKrJuL5S6iSGZwuJjz7FVN'
p454
I2
tp455
a(g10
S'124Fu71nz1KB3bEM4YgGM97RRuLosh1he5'
p456
I2
tp457
a(g10
S'13CmaZRNCTf2JCvYVTGFYnC2mnAhSc3ziS'
p458
I2
tp459
a(g10
S'1DiCfokxMoiCa263mjeHoBFuzhT4iAkXyu'
p460
I2
tp461
a(g10
S'12KSaza4HsXwrg5XgN3niJY7TxHZSfcRc5'
p462
I2
tp463
a(g10
S'1Hs8rZ3fFySVo5D6s7xQVD8LspeXLK7UT6'
p464
I2
tp465
a(g10
S'1PTPvaSEhgwijdb7BGfWpR7iNH5JNBovfK'
p466
I2
tp467
a(g10
S'1QFC5BhMHN4wkCBpCyC5eRHPncYDEnQtSy'
p468
I2
tp469
a(g10
S'1KDxjAbqixUWmwCxN1DfDsXj6HJmDgTyw7'
p470
I2
tp471
a(g10
S'18pky55XhFYHxMFd1mwteMnz3ZtTUqMC3N'
p472
I2
tp473
a(g10
S'18grD5LcdWnUw3MvozP663gqY7UhZz7tEy'
p474
I2
tp475
a(g10
S'1Ft2dXjJ82kWtqv38y6wR6KcPdmMC4khvx'
p476
I2
tp477
a(g10
S'1DqX6Gy4xZtXF8tvqbCRvAsUa27BrB8rwC'
p478
I2
tp479
a(g10
S'13myKSqgmNmjaVfUv82ZbmggHWyApD7qRd'
p480
I2
tp481
a(g10
S'1ETy6wbjKweRtKxYHUfeRxv9rhNmRVw2we'
p482
I2
tp483
a(g10
S'1LKpesdqRkdYkRuwkMQfXUK22CM1AieTkz'
p484
I2
tp485
a(g10
S'16Hzydw9Sk43MKScndj8HNbrtAjXcuhg6B'
p486
I2
tp487
a(g10
S'1Hgz1WwpNAPR8AdD9T6mWLDDUEjvv5kFUt'
p488
I2
tp489
a(g10
S'1JMfcEpfhQVb3kJf4PYhsQNLtp6vwWc23T'
p490
I2
tp491
a(g10
S'1NWWUFm6QQUhrbucTAuaUkazxSxhZ3ZeKB'
p492
I2
tp493
a(g10
S'1261g2kcpQWTdhMRhQxudbGLGUhcKSoHei'
p494
I2
tp495
a(g10
S'19ou7N39L2yuQRykByKMXCTJVatZq3y296'
p496
I2
tp497
a(g10
S'16F2QVUAZyBS4ooWwMvqwft8oNFT1CZLQ5'
p498
I2
tp499
a(g10
S'1Ag4NgD3LRG59SsgRvV6nxFhYEczq6Z7sW'
p500
I2
tp501
a(g10
S'1C6U4fcSxcrwG9brYD5cjRvwrraz7q11xY'
p502
I2
tp503
a(g10
S'12RrTRG5SGUm977CTVZA94ddH64nxpdLyt'
p504
I2
tp505
a(g10
S'1PsFwVKu2xp96pwgiK9TJMK12JEcwfqyca'
p506
I2
tp507
a(g10
S'17K5tRKDQY19whgVXLgNCge69zMGdSW6ue'
p508
I2
tp509
a(g10
S'1APEyRZzugXL9iMfLoUWwgPG8WPenP2Jt'
p510
I2
tp511
a(g10
S'1N68RBoXF5HJnQzWQCtwDeiHn27K8rfvqK'
p512
I2
tp513
a(g10
S'12Ubym288BpqjDEVXefaz2L9pHWkkq2Xn5'
p514
I2
tp515
a(g10
S'1K7YhLMNkCVNrgi7gCJDDxVRVkQzgQxJ6W'
p516
I2
tp517
a(g10
S'14tjkd2vXpwbSA4hdSAJ9kEg2QGm3K8SKw'
p518
I2
tp519
a(g10
S'113zMRK482squ5Wa1DL1ETqwLJdYN7jynt'
p520
I2
tp521
a(g10
S'1Pw4U2kC4zZfBJPN1ccDbJiGaEJAW7kcvJ'
p522
I2
tp523
a(g10
S'1MxZUj4KLH2u4kGnPFFtdKo3KPnATZz4hy'
p524
I2
tp525
a(g10
S'18WNeiKmxm3RKMKAkWhiEqUt6Rgu6a179n'
p526
I2
tp527
a(g10
S'12HTFCaeccaa3Zuyc8aNBLJnkQ1vVAW3Pn'
p528
I2
tp529
a(g10
S'16VYmBfz8CDouwTF9oRBgrfHxjrjZerCUr'
p530
I2
tp531
a(g10
S'12e7qspSZUvkbbohVPf3LVJPpD3o4AFAkw'
p532
I2
tp533
a(g10
S'1Jor5qhCMVuCojMJpPTJjnw1KD7WAoMY7L'
p534
I2
tp535
a(g10
S'1KZTKvpYDGdXDDa83twRR7ysZgUs8s75Tb'
p536
I2
tp537
a(g10
S'1P3x1fXY69CqtwAVi7YtDtGRzGbGdZe4Fv'
p538
I2
tp539
a(g10
S'1LjQMXUAkZ4s9MTrhryM7mDgxjuYRPVXwu'
p540
I2
tp541
a(g10
S'1C6U4fcSxcrwG9brYD5cjRvwrraz7q11xY'
p542
I2
tp543
a(g10
S'1A69dV7CuWKGxj2eq7YAYhNqfPGBUbPXYK'
p544
I2
tp545
a(g10
S'1ChZVWdt9mRV5j7Bnm7A3LXzYf14gSsDV5'
p546
I2
tp547
a(g10
S'1PqXQwGybJ1A8WVbgo6Hcac8cCcCy37pFU'
p548
I2
tp549
a(g10
S'1n8VuZTHXf4VEJzoCqghdyGMQGME6mAce'
p550
I2
tp551
a(g10
S'14bcbBzxgkzRRXQWb39yJShNEDAvpmvyjC'
p552
I2
tp553
a(g10
S'1Q2Nb26nvaBfWPFVrChjH1eCYyLyfreEKk'
p554
I2
tp555
a(g10
S'1LGqJztd2y5YBXM4SkghjarrHM9UxeZuwU'
p556
I2
tp557
a(g10
S'1PsiTLv7rJ1KahhCYPDdiAfaqkZBfSFyup'
p558
I2
tp559
a(g10
S'14uChvdANCPZhnNb9zLBVJmfKzJdst2hci'
p560
I2
tp561
a(g10
S'1HgoLxUCZRUgtjS7ft3NxT2NXRhCSgSh7w'
p562
I2
tp563
a(g10
S'1KnpzPu4Ljn4fBbsR1y6XpebSUnL8CDQdS'
p564
I2
tp565
a(g10
S'1GYRKGSAuqvs1dsoF7MCK574DJgoEFRfJd'
p566
I2
tp567
a(g10
S'12RRTxeQfp5SvzHcytVs8qSL4osEkeCD2E'
p568
I2
tp569
a(g10
S'1Jn2iW1VebuUEiHWAp1uP3CbscXM3zQr4m'
p570
I2
tp571
a(g10
S'1Hukph4N1T8vNo3FMsbzVYZg3dAR9fYWN7'
p572
I2
tp573
a(g10
S'1HbYMb5LEhb4Dt4dgZ7fuwQUTm8Mw8SbxU'
p574
I2
tp575
a(g10
S'1LK5h9rjbHb5QqWUg2eD9LYSha1AiuJhLH'
p576
I2
tp577
a(g10
S'1NDXQwvfpsbpYChBfAz62qz9r5xasYEivz'
p578
I2
tp579
a(g10
S'1M727dAw6pcFPEBJnw5f8hCY7RzHBpbiGd'
p580
I2
tp581
a(g10
S'17CwnDmmyvhNWfkoUmVWtUyySQSbPS3gRi'
p582
I2
tp583
a(g10
S'1aKp2Gb5WWdGKQPsfydJDp7itNUsiisCC'
p584
I2
tp585
a(g10
S'1ChvsNA2cu7KNCaA5d68ACHmDwqNuqNgmy'
p586
I2
tp587
a(g10
S'1FNAFAfb8Q4m6Lj3XByX27vT5uUzoL3Gzy'
p588
I2
tp589
a(g10
S'1MuEyo8wEaPzCb5MqLk4oMLLKWhBPBuTMB'
p590
I2
tp591
a(g10
S'1D7p9SCCtoS2DFjkXrM9dzwdxuogm85hnx'
p592
I2
tp593
a(g10
S'1JVR5arVRoKW2ckbWex99g77cd2C8JGQ5e'
p594
I2
tp595
a(g10
S'1KCrYr3DQKj2HZUrKvzGfBGjR3QyVfNSXQ'
p596
I2
tp597
a(g10
S'139Ka1X1CUL7ua6eVkpS8RmEb43DRwexMi'
p598
I2
tp599
a(g10
S'1FxMcJSADKophKhdqV7CwspLtfjgJPNeGo'
p600
I2
tp601
a(g10
S'1KdjwbuiNv3tpj6q76bddszZiDda232Fjs'
p602
I2
tp603
a(g10
S'1LHy7KdvpTnNoJDJ9a7a6dvJLURFk3UaQJ'
p604
I2
tp605
a(g10
S'1HaFw4r738ivSKcrp882uJF5mNwgmdfVu4'
p606
I2
tp607
a(g10
S'1ACiXRDjMJkxP8dd1c6EqT4P56rNnpanCR'
p608
I2
tp609
a(g10
S'16TSSZD8X5kFcPzutwJujHQ975PmR6UpHm'
p610
I2
tp611
a(g10
S'1Js7BdRdVcqMpt2xmxsRz1R6SGGxDsGQ7m'
p612
I2
tp613
a(g10
S'1B53Jh7Mg2gZ1qah1UuvgoUDSRFnXR5T5G'
p614
I2
tp615
a(g10
S'141AyQgVEgouQL9XaUsyiLNLcsyTCwVgAd'
p616
I2
tp617
a(g10
S'16F2QVUAZyBS4ooWwMvqwft8oNFT1CZLQ5'
p618
I2
tp619
a(g10
S'19FLvrViBBXqQvYEmGzxQHfiMUC4uVfAgD'
p620
I2
tp621
a(g10
S'177RTT77fX4uV71YDjLbaRnqTgZHM7mtmR'
p622
I2
tp623
a(g10
S'16kjtqTR7vrtmbusLrE3NRupNMW1oYbNHt'
p624
I2
tp625
a(g10
S'14t3uiJ3aBgQPMmjH35kRAhEtJoVVbzP23'
p626
I2
tp627
a(g10
S'1FMiYAKfycuWhzU7onvSeVZh6yaEYvAyDr'
p628
I2
tp629
a(g10
S'19PtDwW7LBVMZaGsXzUTyToBoJriGhCHBb'
p630
I2
tp631
a(g10
S'1JRbzT2kdoEFPnmD74uxiNk8ANfy6dFE2Y'
p632
I2
tp633
a(g10
S'1A69dV7CuWKGxj2eq7YAYhNqfPGBUbPXYK'
p634
I2
tp635
a(g10
S'1LNuTdUQ5UZK89dUp5Dn4SSU7XqVg2aztm'
p636
I2
tp637
a(g10
S'1Kqo47nJMeRfxYTnxLEg3DDWRY3DbWtvcD'
p638
I2
tp639
a(g10
S'1HHDimdhRvmDDqS8afbejbLr69oeCx2PsV'
p640
I2
tp641
a(g10
S'1boZAMq6gBam3V7QMRHYJ5o4menFKArwN'
p642
I2
tp643
a(g10
S'1826YaqKX4NHJZPzV7ibuauqY8Y3wpVrR6'
p644
I2
tp645
a(g10
S'1DySddMiehWzRQy8TZiSzn8KPsYVKRHFB1'
p646
I2
tp647
a(g10
S'1DguxkvbH6DJ7qVcpZnhC6Ywrb3z7BZZpv'
p648
I2
tp649
a(g10
S'178Zv8S479wbjVDvBSntP5SAf4oBzEMdGK'
p650
I2
tp651
a(g10
S'19drsCoeMMK7Xs9sfUv3Hod1d3mj28Eg38'
p652
I2
tp653
a(g10
S'1Lxb1p1c9c9tgQoNn7rp8Wa75ezjJ3hFiS'
p654
I2
tp655
a(g10
S'1MSpU1X9XZQNWgmsEtbeycCPvR4jQb2af'
p656
I2
tp657
a(g10
S'1AGisaeSZWvYbEmRbVDE4X8NCZvjDDNHDC'
p658
I2
tp659
a(g10
S'17xLyMWCYKijBqgYgPZxKaXKEaPyr7F468'
p660
I2
tp661
a(g10
S'19rDPozFtZimBr9FMu9E3fzu8Nsw3B23ZQ'
p662
I2
tp663
a(g10
S'1AXymWUMqY2WfjgTardKSSRTpsmdHxpc1p'
p664
I2
tp665
a(g10
S'1AjxrbZvscf7bBoC4wqEpTrxt24wmtPRzz'
p666
I2
tp667
a(g10
S'15MikBxnyqGG26iC2XXrT4rdpVtGgQi8s8'
p668
I2
tp669
a(g10
S'1KUJxkiqR9TGPfVPTGnWPkFw9mdLa6tKjw'
p670
I2
tp671
a(g10
S'18MhUe8rEPyDgCwER6FGs4NZH6KAgfRsBW'
p672
I2
tp673
a(g10
S'1P5JXvYyRDcoJbDSQnWrhAXMWRguLx48Eo'
p674
I2
tp675
a(g10
S'1P3oRHK5Yan7Kmt34cQZxSTAf5uG9S1GZ'
p676
I2
tp677
a(g10
S'12uGMvxb7FkDsXAQyLAxSfXjiCVvZmbUuR'
p678
I2
tp679
a(g10
S'1F6W4ZcPCN5W32mDZQTqhPdF9XmFWUdugp'
p680
I2
tp681
a(g10
S'1Jy6FC2paXM7ZojDJYJkHjnhDM3gdKFsJm'
p682
I2
tp683
a(g10
S'1Q9WvPhYEVWRbe5gHvEHDgkFvNnxANM6Ps'
p684
I2
tp685
a(g10
S'1LPhUj1Wace3YEmaye8TYVcacJmvvSpLVn'
p686
I2
tp687
a(g10
S'1KpM1dKMC3EqxrsxgznAyEshMF9uoh77t4'
p688
I2
tp689
a(g10
S'1Hu1kF3Rhr5F5eF35dLBuummYsuG92fh8a'
p690
I2
tp691
a(g10
S'18XHrnMYfF4x23En8BobVP3B4X9Fh5Z2VV'
p692
I2
tp693
a(g10
S'127hkSUURN14wSTaXcso5MbmuN2QdXQWpS'
p694
I2
tp695
a(g10
S'1F3jfRPtr1kTdbDoiLUmfCwAmTvwktk2sH'
p696
I2
tp697
a(g10
S'13pz1snhDB1yoH49Cj8xwRB5QDRn9ykaSA'
p698
I2
tp699
a(g10
S'19QLQy8SwKTt2VYyPmTtBwLMnQA5hKVDg1'
p700
I2
tp701
a(g10
S'1DUjT9TNZ64LcNSXx3kYX7cHZV7y3H4SxJ'
p702
I2
tp703
a(g10
S'1GWtXqyKsduVRZtws693EgBmbm9EtTHAk4'
p704
I2
tp705
a(g10
S'1GN2yFJbpbLZadLG3RTKet9H9gVo7oF9Tq'
p706
I2
tp707
a(g10
S'1Ati4CVavJ8W36KswqW3ECnCTqQCavTPdF'
p708
I2
tp709
a(g10
S'12e1E23X4qbNMekVHtKaxnD6h3S4yCVj6W'
p710
I2
tp711
a(g10
S'1PTHpeHDaRrzsxXyu5weuwnAwjq19dkvvF'
p712
I2
tp713
a(g10
S'1KuYUYNtGkyezWjvqAyvw4YQpu9da3Efr7'
p714
I2
tp715
a(g10
S'15oq2f5meuQ1iFPxuJGaySMSAdWveNURid'
p716
I2
tp717
a(g10
S'1GWjRExvmvxaTgfAyEfGht1qE8D2DpeMXW'
p718
I2
tp719
a(g10
S'1Ati4CVavJ8W36KswqW3ECnCTqQCavTPdF'
p720
I2
tp721
a(g10
S'1HPKiUGEbZPTkYAWJPw2qszaZu7JU2mB6q'
p722
I2
tp723
a(g10
S'13ZGfJJ78LGrycNDt1BdLAFyqvD1FnMLfx'
p724
I2
tp725
a(g10
S'1G1aaj3dvP3B8MZ75wpGg4Uj2BmoEeEEUZ'
p726
I2
tp727
a(g10
S'18dRxKua4m2xqLaCbMfm9ur7MmGRui8HLQ'
p728
I2
tp729
a(g10
S'14M8bwc22JMPSmqM8NtNVUmeTeYq7mzSmV'
p730
I2
tp731
a(g10
S'19343jf6uinPQSqHe2QfLuqrM2y8TcPYFV'
p732
I2
tp733
a(g10
S'1H3fBTssNAgy5HbMKzKNSYiFPsboMTPnPW'
p734
I2
tp735
a(g10
S'1DaECfAqdrcNF7VDiVXdQM5tUugVcC3Fnx'
p736
I2
tp737
a(g10
S'165jMZqZFEW4zkogvFgdgJkCn6U6rbGB9V'
p738
I2
tp739
a(g10
S'17h8p68oacAyvBcQHKLZ4CVzbEyzA2Bpko'
p740
I2
tp741
a(g10
S'18XdVoAFWz25f76oSU2WW5n3gSdLpsRgu4'
p742
I2
tp743
a(g10
S'172Cb5kbxi5fg6Hy48hUNske3PgD4uN5TU'
p744
I2
tp745
a(g10
S'1NnKW5KjNLyAHvupTGETDAE7PrPajM7AmT'
p746
I2
tp747
a(g10
S'1HKw3JnTaJYhgRsxBNxL8LSKLRvFdntzfj'
p748
I2
tp749
a(g10
S'1A532vNfti4njbaJ14BG6tK4wvTVrcUZw7'
p750
I2
tp751
a(g10
S'1P1xM77Srue8Eqc5vodbywEL33iqwEXXyE'
p752
I2
tp753
a(g10
S'1Ma2nEyBLjrR3yfNzNayh5txuft86gzKtM'
p754
I2
tp755
a(g10
S'1FeSCTJCp7K3AeV9fKR9FENyMzKE65yMsM'
p756
I2
tp757
a(g10
S'1JE3gttLn2bAMYTZmh19Baktu1GCzPeXRm'
p758
I2
tp759
a(g10
S'1CBeGFdyTtAnpoQosdRxQJbWu41Xvb9xXM'
p760
I2
tp761
a(g10
S'17kFn4U35it8h5exKcqjVjVgPqyUFeC6xo'
p762
I2
tp763
a(g10
S'1EAFuDLzZWfcfTFJ6rFwYRxL6nVDiJ4zDB'
p764
I2
tp765
a(g10
S'18KtBrt1AU7keeCietNRFiA9EqnXVVs438'
p766
I2
tp767
a(g10
S'1C2WygB19aUy7PESqBuLvSbcZ9K8NEMtp2'
p768
I2
tp769
a(g10
S'1LeFwYVYawimG3v87vScMsAmJ8QgGc6C5H'
p770
I2
tp771
a(g10
S'19tgpadJAySyD1Z9JW6EymDchaXWzk8aqS'
p772
I2
tp773
a(g10
S'1ESR1Jt6M543ziLq9NBwgNpgYe9px7mW5a'
p774
I2
tp775
a(g10
S'1M4mqEdb4gC2LMAjcZ5rh1oDg2pJ91HSDa'
p776
I2
tp777
a(g10
S'17Ap3pRCeJ5dxDToYQsZnswNdB7wkXJEf'
p778
I2
tp779
a(g10
S'17bDkPCdJdkgzAm6dsGvZ9Si4pCeZ6F3Qx'
p780
I2
tp781
a(g10
S'1KAXjvrg51CzLPhYu2kQAakM4m2woRcL8a'
p782
I2
tp783
a(g10
S'1M7x8Jwbm4XxZYKc1GBBWspwA4uAWQwBKe'
p784
I2
tp785
a(g10
S'12rVQDmTGhSvvsCxdgMJVvgA5WgChiptU2'
p786
I2
tp787
a(g10
S'1HJpKTCGfWnp1wtWirdxEagLwa5Q8xgVHm'
p788
I2
tp789
a(g10
S'1EBawawByVQ5QFt1sAzMcjEbfZxxVgrDpz'
p790
I2
tp791
a(g10
S'17kKWgWtoLdknmZFih7QESim1iyeqhAEBk'
p792
I2
tp793
a(g10
S'1Fh46mzSD3ybE1K67XYMQvGJme9jXLiFW6'
p794
I2
tp795
a(g10
S'1KL22RZM8WhvymwcmJuoXJHwsPNdreXNK1'
p796
I2
tp797
a(g10
S'1KueL2ujcjw99Y858arqmREfPCGkAcqQKj'
p798
I2
tp799
a(g10
S'1NH7pQaXU6nxs84RpJBnzkUAj3fJ68S4Zn'
p800
I2
tp801
a(g10
S'1LA9h1kzDDBojexBnLaWTYvfGyjxt61PAm'
p802
I2
tp803
a(g10
S'1AP3yupqu4d464d5gnnfQaQoL7shb7pXSj'
p804
I2
tp805
a(g10
S'12bh2t467dqHYjGzphxmXo2NVWRWCyw8D9'
p806
I2
tp807
a(g10
S'17o2uBeJQJjF7JwW4PGwaJxwuYxKjnvgYT'
p808
I2
tp809
a(g10
S'1HFZpwrHc4W3CEJ62AqxEj8KeJL9XZBa3F'
p810
I2
tp811
a(g10
S'15GBM1J3XrAVgBr6hMBqkbF6GSkVoFNDGA'
p812
I2
tp813
a(g10
S'19rDPozFtZimBr9FMu9E3fzu8Nsw3B23ZQ'
p814
I2
tp815
a(g10
S'1jPR9AcjDvgLQH2AAuavrSpZRPAYmdxD9'
p816
I2
tp817
a(g10
S'12xLWedumZeRQs3iyX8pKxv3ULcvePASsm'
p818
I2
tp819
a(g10
S'14z56cyd9RWPEVGfXh21KSQz3cXsTJjBdQ'
p820
I2
tp821
a(g10
S'1KBnwu192r9zzcZKak37xj7e8xK1hiA45f'
p822
I2
tp823
a(g10
S'1LQV141hv1PVL78LRYMcMqPa7MCdAXeYxw'
p824
I2
tp825
a(g10
S'1PHpRi8AEuVYPF7EC7tvSkdjKDXYQG1aVo'
p826
I2
tp827
a(g10
S'1JrNx5fAMrsMw2qkmB514NDSq1zzXgd9d5'
p828
I2
tp829
a(g10
S'1MupXijPc2WHXDoyWduHCw8aBA4RvQjSZW'
p830
I2
tp831
a(g10
S'16bxAMSC5vJVYSZeWKu1gTHEg436QbuKok'
p832
I2
tp833
a(g10
S'1684guDXkHgfrekykwG9HkVY7G1ZJuZyeW'
p834
I2
tp835
a(g10
S'1ECAATuFkv5Xn7CSg85FkMjvFBPf4c9LTF'
p836
I2
tp837
a(g10
S'1DKqEPseXQHj7GxHum9Q2uDY1Djw5J3s5K'
p838
I2
tp839
a(g10
S'15vFKiDqWyDTSnd5hDUUM576LasWEDKnKr'
p840
I2
tp841
a(g10
S'12NECnebjSfxAbmB4BuTEgptq1u7vm1Cx8'
p842
I2
tp843
a(g10
S'1GNBSNPYYQJFBwLiYcdC76s2XeGaSx4cda'
p844
I2
tp845
a(g10
S'1EZprBWassyTmZ8ZZmrN7fpqfzaqv8JnaH'
p846
I2
tp847
a(g10
S'1D3qGuQ6rG6xHtLyyWdwGEJuLCNEov24vz'
p848
I2
tp849
a(g10
S'1GgBuYtjeJwe1DTFZ6LySrpize9Ynnbodo'
p850
I2
tp851
a(g10
S'1Ng4AVie5KidYgzRjh7cPMwNZEQdC65Bk9'
p852
I2
tp853
a(g10
S'1D61NkjpnBjcAtbC41eZ5Cx24m4fe4DV3w'
p854
I2
tp855
a(g10
S'15CTH3Ai4F8fmRcRB9L4bP72jx6YaME1zM'
p856
I2
tp857
a(g10
S'1H1ozoiwfEhxh9iXQ7WcfqqFMrMoyDsWaW'
p858
I2
tp859
a(g10
S'16Q3yATwWgZWYnyVSgf9qM2EpX5LRB6BGw'
p860
I2
tp861
a(g10
S'1FSbhY4WsPg2y5eiA5eeAhakWfcn5EweYs'
p862
I2
tp863
a(g10
S'1D4StYiWRqXdA8LaEJU4ZZX4z9qdzmJGax'
p864
I2
tp865
a(g10
S'13vhom3WkYP2KiHa7CzEU4wk36BffRP5Wf'
p866
I2
tp867
a(g10
S'1FULH65X1Mq5qMZP4NkDnS4CT4zbGoVyMB'
p868
I2
tp869
a(g10
S'1JnJTvERoJLa7pxiBgVMc82VeH6F2P1Dp4'
p870
I2
tp871
a(g10
S'1Pvbm5LtjnWPCo3QEaGXW8y7k4DdQMkQXn'
p872
I2
tp873
a(g10
S'122D7DQvnSbvJJJ3B7VkYUfqRFR7uLpLLv'
p874
I2
tp875
a(g10
S'1LoncCMyXE7eS7YTpjCZu7i4WebYqRUzTA'
p876
I2
tp877
a(g10
S'16pGFPnDqTkZycMcrJhPMNrF7XBN8ZUnfS'
p878
I2
tp879
a(g10
S'1EHq5N4sC688ZNupsQKQqLAZ1xxgFQVP3A'
p880
I2
tp881
a(g10
S'166WYyJtMcKwSchPW8ocG6LCGeszMYsz3M'
p882
I2
tp883
a(g10
S'1BytDR2JYk94uNMQ1sBB16paXEVQM34fDC'
p884
I2
tp885
a(g10
S'14uChvdANCPZhnNb9zLBVJmfKzJdst2hci'
p886
I2
tp887
a(g10
S'1EgsG243r4jxT8LhPFTyGq3C4vr5LxhiuL'
p888
I2
tp889
a(g10
S'1EU1rip1o22R79ugf2tRTVQftpcps3D8VU'
p890
I2
tp891
a(g10
S'1kWp6g4Pc4bxQSV7HgarMqRPqA6VrSaut'
p892
I2
tp893
a(g10
S'15X42Sdm7fVPJdLhBWw44cAWmSXRHfHtkD'
p894
I2
tp895
a(g10
S'1J9zDLRg7BNxxS7MigWt7NdBWDVbX8kGbK'
p896
I2
tp897
a(g10
S'193bXkAqDg3HPekEwGeGZNbokB5JnLXv1W'
p898
I2
tp899
a(g10
S'1NNWLjwxCNu998PzEzB95Y3f5afgXXi5P4'
p900
I2
tp901
a(g10
S'1Hgz1WwpNAPR8AdD9T6mWLDDUEjvv5kFUt'
p902
I2
tp903
a(g10
S'1FwDpDEjaowgoYgzrtt9DeoLzSJRifq34A'
p904
I2
tp905
a(g10
S'1MRbAjmD551Y3CzzCeuoX4a64bW453WGr2'
p906
I2
tp907
a(g10
S'14P7P8YhjqKJ5veyAReS2U54VYZjmSXLxN'
p908
I2
tp909
a(g10
S'1NzetR2gZfqgjVxwzFQWKujQ7rxk7YoyXR'
p910
I2
tp911
a(g10
S'1EeT5djdYyffEqv5xHtx9K9wc7uBdCgfpn'
p912
I2
tp913
a(g10
S'1Q6jUB6H81w7qqcf4z37cXj2mQbNYxrNcc'
p914
I2
tp915
a(g10
S'186kdXyq3CuhM3GAmJY1mqGaxmpJQHDza1'
p916
I2
tp917
a(g10
S'1K8AV226aRNCcaBC8bu6RhwjaiMq5vsh6N'
p918
I2
tp919
a(g10
S'15TmvYv6b1gBajBj3CCRZ1dvs2XKrDDFua'
p920
I2
tp921
a(g10
S'1PqXQwGybJ1A8WVbgo6Hcac8cCcCy37pFU'
p922
I2
tp923
a(g10
S'1KjqgmyahKp4CXi6p151SwPXBWHhifrSPi'
p924
I2
tp925
a(g10
S'114gzdtXhk8Q7zMMFttgHWbB7k31gKPcuE'
p926
I2
tp927
a(g10
S'1JdHfUqWnccRwB5zwM6Hyokaa7xtpzQNGS'
p928
I2
tp929
a(g10
S'1D8ZDmzXR5NXE1FvsBD5erPYfX6mQqzS57'
p930
I2
tp931
a(g10
S'16SAKH53eXFFaMr6fmYffMNpzwCq1kC85i'
p932
I2
tp933
a(g10
S'1Fe2y67Ae2fekipJkWiqWVPjzBpMcozDbD'
p934
I2
tp935
a(g10
S'1BCooojTJVNjDPgmVkt1UyCZmUBrnsA2eg'
p936
I2
tp937
a(g10
S'13PFGBi52zmXQqb4tKLkNzBzWDCAkQSqUM'
p938
I2
tp939
a(g10
S'15BgBRNNJir3WKvZXt7QvMowhaPsMwGVrh'
p940
I2
tp941
a(g10
S'1YvkJKcFWLfLytp7pRTNcWS7DCbbGihYa'
p942
I2
tp943
a(g10
S'1Hu4N99SfMQh8skiAwyTFSehYptFPRmN3k'
p944
I2
tp945
a(g10
S'1D3stvWcGFKR6nVHGULcwDMy8aAPNVtB4p'
p946
I2
tp947
a(g10
S'1Jtsmy4hcxesP8xu1tQjzMdsFxU7azZhtc'
p948
I2
tp949
a(g10
S'1JXiwjpxGVy4jKL8SQLjnhjAqa6EftxabD'
p950
I2
tp951
a(g10
S'1GwUGeQJZB1BcKCMh83zMkUi8h9BeAxf2t'
p952
I2
tp953
a(g10
S'1BjpokwzBvPKhVvHyhZsGp7k8gSDd6Zkbk'
p954
I2
tp955
a(g10
S'1ErKaHSZBjctomVAt19oTSCottwk6sXYk1'
p956
I2
tp957
a(g10
S'122sabv228tfcghE4mGu2jncVQQufF3jvM'
p958
I2
tp959
a(g10
S'1D6J6naizsv1Vkg6fEoxnJHwZRm3ezos7s'
p960
I2
tp961
a(g10
S'1H612vmd4bjKLdBXSUwivnR1gPaQvFgv1E'
p962
I2
tp963
a(g10
S'13pWF7W9UPYrkEYD7U2geYxs6DjCNCT5Hz'
p964
I2
tp965
a(g10
S'1PBnLJYeju4jxjs6ynrgHmTei2tMbADjMg'
p966
I2
tp967
a(g10
S'1CX1WnMHKwLnxXuBGtnXXvkEcHVuUpNtyF'
p968
I2
tp969
a(g10
S'1CsRKTRMBG6oT7fJ5GFT1vfHhqvcWuQizS'
p970
I2
tp971
a(g10
S'18VGwWbFLFGL38zpRfA3iThkVVsQSzRLfh'
p972
I2
tp973
a(g10
S'1HzzSyyfozETNQQ64gEeRj1JC3V8Sg3eb8'
p974
I2
tp975
a(g10
S'15uyVs2N4zC5XMRJgng3YtxXZ7RPRr1xFG'
p976
I2
tp977
a(g10
S'1PhnzzpttzmCKybcxAtBYmKqhN2e7jFYEc'
p978
I2
tp979
a(g10
S'1N9AT3wP4WVumXVm7r8btq9fzrE755hBPz'
p980
I2
tp981
a(g10
S'1F7BUDnMg3MYGtVPUiJzEtWmqqwtTYhFKd'
p982
I2
tp983
a(g10
S'1Js7BdRdVcqMpt2xmxsRz1R6SGGxDsGQ7m'
p984
I2
tp985
a(g10
S'17f6WheKC8hr32wKbkCTgXVxDEWxt7jmND'
p986
I2
tp987
a(g10
S'1CjKL9QaQ9WSEdLJRZ5BgpTkeSJf1Rrrdb'
p988
I2
tp989
a(g10
S'1LN8aNqS9Uot5UTuJPgs8ZcUQ7zsrn4whJ'
p990
I2
tp991
a(g10
S'18XGYTKA1vkPHzTd7buD4LUGHcjxAQAkJZ'
p992
I2
tp993
a(g10
S'1344gfZJ444k8nWp4YvvaprMZ1SzTP7KJR'
p994
I2
tp995
a(g10
S'1JDBYDKC5pDmFV88aJcNxYN1f6GG7zF3rc'
p996
I2
tp997
a(g10
S'1CDomXxVpSKToS2Lcs8G5oZepz2w3fYWub'
p998
I2
tp999
a(g10
S'19pmHGP23a6kmeWLZeSr1VV4JNv4UzkEi8'
p1000
I2
tp1001
a(g10
S'1G4SbB2U8rNjbWNViDH9ZFhPArhha2LLLL'
p1002
I2
tp1003
a(g10
S'1G6RPYGgTT1RPHgArF4o8BNc6eugy7S9Td'
p1004
I2
tp1005
a(g10
S'18pky55XhFYHxMFd1mwteMnz3ZtTUqMC3N'
p1006
I2
tp1007
a(g10
S'13aCtc4z6bBraMfcJTHFk1yZnjskaykJr3'
p1008
I2
tp1009
a(g10
S'1CJLee3cEf593MexYYUsHzDzDBU3vB3j8V'
p1010
I2
tp1011
a(g10
S'1DXhhgRyZvfzKFN261U2bVU8xuDU2mGjJE'
p1012
I2
tp1013
a(g10
S'1Q45JUQaTbzZcsavtTeAF6JsBoqWfXA7nr'
p1014
I2
tp1015
a(g10
S'1NLb7ft1qNd15yYQKwHvQzuLBNXDYjHTGt'
p1016
I2
tp1017
a(g10
S'1BXFPAid6R1Pa821Rtr2Qx1YqWCfChB1uD'
p1018
I2
tp1019
a(g10
S'1KPyMxBKu6BhanVBEtjdcDWGCg62wCzhGW'
p1020
I2
tp1021
a(g10
S'1Djv3YFVSX6VJBwk6auDSZrLtv93WeYvF8'
p1022
I2
tp1023
a(g10
S'1DjAUq5j9zM8ea5Mw2X8MsEiav4NutvuRB'
p1024
I2
tp1025
a(g10
S'17oagbk2aSQYCrR6ZfjnVSScMPC47mYcNu'
p1026
I2
tp1027
a(g10
S'1EeUjoW7fTRg3knEUTuJ8E9Wr5PUZj94Rj'
p1028
I2
tp1029
a(g10
S'14opvgBkxsj2R8xS1FQZrNzzUj2TVT7YAk'
p1030
I2
tp1031
a(g10
S'13CmaZRNCTf2JCvYVTGFYnC2mnAhSc3ziS'
p1032
I2
tp1033
a(g10
S'1Da9xz8doLgvVh6BHz6cwjmwAPC1sepsod'
p1034
I2
tp1035
a(g10
S'1A9xLu3gJCBDzY3va5bkP1tJsvH7khXTUA'
p1036
I2
tp1037
a(g10
S'1JVW1NJ9NXp2nkxK24zsS966C1LpdKZ3yr'
p1038
I2
tp1039
a(g10
S'1Ds4mHDxTa6v2Mm7PSr9ed8W2vgse8igjK'
p1040
I2
tp1041
a(g10
S'1STiteUvFw8Uu6GESC9biQSstvA1esLYu'
p1042
I2
tp1043
a(g10
S'1LFvoLtqhLvW6Q627f1a5hdAjn1EUhDYGn'
p1044
I2
tp1045
a(g10
S'1E1jK5iG9HamcGDf7j82SexkjJ9PDKxKWo'
p1046
I2
tp1047
a(g10
S'1xBXmWCsCcqirbmW7tuwr7usrzrS2uF4n'
p1048
I2
tp1049
a(g10
S'1FzTBHeiKqHG8ugPkbAmC4q6byhvt45NkL'
p1050
I2
tp1051
a(g10
S'16EDCugPQxGMFDhr3h289Rq7EwRymR1Cer'
p1052
I2
tp1053
a(g10
S'1PzUQnNbp7khcfipGBDvh72umurqUKVcKW'
p1054
I2
tp1055
a(g10
S'1GQw5Dw5ibtQhgACNREhiwBmh9HsWfpnhr'
p1056
I2
tp1057
a(g10
S'16ey75DaJSRWDmx3rKXvFvaLzdufhdn17d'
p1058
I2
tp1059
a(g10
S'1H9kB6uJrSfuXWJvGHFM8L27NtCzHsH9k4'
p1060
I2
tp1061
a(g10
S'1GSEkQGZSwobWSyrxCeCs3mjiYVRNK5dm4'
p1062
I2
tp1063
a(g10
S'13j7uzMySBro8NiAyqRebLs3wfwmE5aKrQ'
p1064
I2
tp1065
a(g10
S'15oyTgV7r8yHj6BmQJR77SREm5CsaEu13Z'
p1066
I2
tp1067
a(g10
S'1Ph3SqMDNCjPK2JHfK4zmSDuNz3BVR47Vd'
p1068
I2
tp1069
a(g10
S'1PXC3Yy7ZdQgKSCFtKgWvtWopJidyhWSZt'
p1070
I2
tp1071
a(g10
S'1B48ypgHXqTHae5gztL1qTc2athPymSQM8'
p1072
I2
tp1073
a(g10
S'1MdWuFGvvKRC7GsNqEXkjwiBLAseA1tP2C'
p1074
I2
tp1075
a(g10
S'1EwjXxcNqvv9cBmXMP1aMTv624oTwf32AK'
p1076
I2
tp1077
a(g10
S'1CfJA25JKmspZEy3rkhKWaUu7RjNKxrQDx'
p1078
I2
tp1079
a(g10
S'1EgioHWaHYR5wCrik9JzPuMnB8SpdQ8vJM'
p1080
I2
tp1081
a(g10
S'1HhfeHr6BUdd9w2yBtiYGqK3hjqmsnMu37'
p1082
I2
tp1083
a(g10
S'1PpXVGd26hLxZK89VTKjURmbCpUqfFtQXH'
p1084
I2
tp1085
a(g10
S'1NAvmgr3nywV1wDECLgqK8USRp7QWNZC1p'
p1086
I2
tp1087
a(g10
S'1DRGfGQoGLtHETbQmZtNpMMo6HKyU1k8Pz'
p1088
I2
tp1089
a(g10
S'1GZyag37i4zVw4XA6anAMB2QZJoHxmZwRY'
p1090
I2
tp1091
a(g10
S'14noSw2SszXe7CS7ivKzuLFQAdbNAa38Ue'
p1092
I2
tp1093
a(g10
S'1PsiTLv7rJ1KahhCYPDdiAfaqkZBfSFyup'
p1094
I2
tp1095
a(g10
S'1UGywPSP65onebzA7G8ZxxokQ34XjRQDa'
p1096
I2
tp1097
a(g10
S'1MTtSmzFnvsBNMEzmnN5GuDqZKxtRfqNZ3'
p1098
I2
tp1099
a(g10
S'139Pqd8CcQFgb4bUf7dZ11UgVaJ3ohH6UM'
p1100
I2
tp1101
a(g10
S'16F2QVUAZyBS4ooWwMvqwft8oNFT1CZLQ5'
p1102
I2
tp1103
a(g10
S'1NqaxB6meexUne4bRFr7MkK4mJLpJFywuq'
p1104
I2
tp1105
a(g10
S'1LuySkbzzdG466oBLuWdmGMoH8L7LrJFnb'
p1106
I2
tp1107
a(g10
S'12PhjF226rVXv1LchuvcB71KVhiTnqpGD3'
p1108
I2
tp1109
a(g10
S'19T2a9wMLEpTPuwYqt7sqgf9sLRBqBx5gu'
p1110
I2
tp1111
a(g10
S'1GVz5gaXAvqrX6WFL84Nom3SkuarZjbMAM'
p1112
I2
tp1113
a(g10
S'1KcjcU35GEWaTQdAh9JesGB4ATVh4NL98k'
p1114
I2
tp1115
a(g10
S'1ETy6wbjKweRtKxYHUfeRxv9rhNmRVw2we'
p1116
I2
tp1117
a(g10
S'1Dvj5AiUVtrnKDWbj1xDDyYLdm93hgyt83'
p1118
I2
tp1119
a(g10
S'1KrTpqKqGvpwVX6xfNRoSGh9ThZqRQ9MDe'
p1120
I2
tp1121
a(g10
S'12x5QWN7wMqH6XwAdRA4FjrtsArBmdtcq7'
p1122
I2
tp1123
a(g10
S'1Nof1TrrVcxENqxDA5Ao74MiPSdYyZ2Jam'
p1124
I2
tp1125
a(g10
S'16quKogrCvnT3HzX3DqrJfgdvGiS47L7bR'
p1126
I2
tp1127
a(g10
S'18pky55XhFYHxMFd1mwteMnz3ZtTUqMC3N'
p1128
I2
tp1129
a(g10
S'1KEwx3rBTVq71zqCi4YkfueY1EorYqsoVC'
p1130
I2
tp1131
a(g10
S'1PvjVMmj4zBpkJSoggUK8HtnB1PAzMLNrV'
p1132
I2
tp1133
a(g10
S'1CqJuA6xuvdsNLoLcstNnAxs8JunhbgvSw'
p1134
I2
tp1135
a(g10
S'18pky55XhFYHxMFd1mwteMnz3ZtTUqMC3N'
p1136
I2
tp1137
a(g10
S'1MQgBpEr4My5fZdWyLeHEoxyp5E6iXD7rM'
p1138
I2
tp1139
a(g10
S'151ee4rNru6qWnr6gyj6shnYU1uScwKTRr'
p1140
I2
tp1141
a(g10
S'1HNBH2rRAipsKVS7WPsp1uNxXbZPrKd6nJ'
p1142
I2
tp1143
a(g10
S'1qpCGX7vMrtot39nGG5An3XioL32dZe3J'
p1144
I2
tp1145
a(g10
S'159Nn8w1cmcNB4VDu4SYgnf58zQ33zgSRX'
p1146
I2
tp1147
a(g10
S'1FWZVjpN8xafSECa3mKu4bBK3wYPBrDy7k'
p1148
I2
tp1149
a(g10
S'1HufY6XWgrbNfAthZK61eT6GpwuheLzedw'
p1150
I2
tp1151
a(g10
S'17gtrwV66tSfTccF9Dcsc2NFNesFQtn23c'
p1152
I2
tp1153
a(g10
S'13kxQt4RRnocEggbaCJhDpSJYDtLFejvVL'
p1154
I2
tp1155
a(g10
S'1Pgv1QpisbHvWUmLBWx9U3Q7AsHUdwxcQp'
p1156
I2
tp1157
a(g10
S'1FnYE31CPnkE2WwGwK1MKvX9BQ7sDPtyZc'
p1158
I2
tp1159
a(g10
S'14bcbBzxgkzRRXQWb39yJShNEDAvpmvyjC'
p1160
I2
tp1161
a(g10
S'1KU8S6Huo3SBDNqcNh7Qv9PxwZajdFh8Hs'
p1162
I2
tp1163
a(g10
S'1JkqbG8jfNzRaYRWwHjtMw6Geut9NjYMRW'
p1164
I2
tp1165
a(g10
S'16TSSZD8X5kFcPzutwJujHQ975PmR6UpHm'
p1166
I2
tp1167
a(g10
S'1Xqo3QB8pBDjPhdwf8ckMzt5NTKcRPUbh'
p1168
I2
tp1169
a(g10
S'1QKwkMnDjnJS6tq6UL5ojyfBZy7JvsYwzN'
p1170
I2
tp1171
a(g10
S'1DFte3BYb5LXikzqY1HZFa7roeteDFx4GD'
p1172
I2
tp1173
a(g10
S'1NEFf6yzKQmC6E3qUCmkYDMRTW6EeUqp4w'
p1174
I2
tp1175
a(g10
S'18pky55XhFYHxMFd1mwteMnz3ZtTUqMC3N'
p1176
I2
tp1177
a(g10
S'1MtPhuQH3XHb6xfHGJXUJ2Uyvcg7tuvWTS'
p1178
I2
tp1179
a(g10
S'13JD8tYF5Ho8qYYLRUTPHb8s1mvzYpujQz'
p1180
I2
tp1181
a(g10
S'1LwRJgZhiDqmGFWUwrXyJXR57pLgV7tYVe'
p1182
I2
tp1183
a(g10
S'1vST6dxBjuuZJWyihiEyVVXAZv2ziVsJ9'
p1184
I2
tp1185
a(g10
S'1BZ4B3zL7jceHQDWYyNMSxyrURVKz33E16'
p1186
I2
tp1187
a(g10
S'1Q9WvPhYEVWRbe5gHvEHDgkFvNnxANM6Ps'
p1188
I2
tp1189
a(g10
S'19axSJLVGCFmEjcGC1VbKziVW3EGQbEMep'
p1190
I2
tp1191
a(g10
S'1M462WQbW2Qsfh48BZ7EfJkVrvWWnbVm3J'
p1192
I2
tp1193
a(g10
S'16quKogrCvnT3HzX3DqrJfgdvGiS47L7bR'
p1194
I2
tp1195
a(g10
S'19sTzBCUVM6hyAu8hxjxyZFJw9nRw25ex8'
p1196
I2
tp1197
a(g10
S'1PgKGASiQWyoMyduyYZ3FxXsVoA4p7pMSt'
p1198
I2
tp1199
a(g10
S'13esebktHQy4jYv3RPQmZm57dcHd1RMJpF'
p1200
I2
tp1201
a(g10
S'1H4xxr1DFvLZR3hK41fnyg8efUCpY7APdk'
p1202
I2
tp1203
a(g10
S'1LuGY3fuS3nNdPB9wfPrZZjRj8pzrVvykn'
p1204
I2
tp1205
a(g10
S'1772hCrNbhM7CAf4C8KDQJyiiJA9iTRWzf'
p1206
I2
tp1207
a(g10
S'1LM7TT9GwW19r66jagZYeGuf5ThF5NSNAX'
p1208
I2
tp1209
a(g10
S'1HsBes7iBaydbwZ9TTPxyNc47WPnYjFfKe'
p1210
I2
tp1211
a(g10
S'17sVUuaPJ3K6rANcjBTthqwuYvW8ikBMiL'
p1212
I2
tp1213
a(g10
S'1BemmF1wG8WPuvsJaL4kEbYGkbyNPRBGmw'
p1214
I2
tp1215
a(g10
S'1BkTDZHGdnHBCS4yKNCWUoJXRmwCB2Tf3y'
p1216
I2
tp1217
a(g10
S'1FKJ51xGyJeyrb6fRAr6qFukeouM7Pb48E'
p1218
I2
tp1219
a(g10
S'1FMqFJ3HLYqXtzneXfgHwkEdmfQijSJfhA'
p1220
I2
tp1221
a(g10
S'1BnmPzSrxswRifNiY68j1g9jGq2Y8GVHh5'
p1222
I2
tp1223
a(g10
S'1KP6gB69mXVCVgAopbWpwy49gKzo8ZxF3U'
p1224
I2
tp1225
a(g10
S'16RjRwAs75MDa5n2rjvpNzVH7b7U7964c5'
p1226
I2
tp1227
a(g10
S'1FhnBdjZFcrEaLFrWiHp2QAsRiRxL7Jc4f'
p1228
I2
tp1229
a(g10
S'1684guDXkHgfrekykwG9HkVY7G1ZJuZyeW'
p1230
I2
tp1231
a(g10
S'1LvUHFaGMX7CjbMph11SgyUiHcyPHWCn94'
p1232
I2
tp1233
a(g10
S'1DsQRcnAcaqG1hJCWestsvbqv5GPhADp9S'
p1234
I2
tp1235
a(g10
S'14NxCxieer4MyLTZ3keub5VyeZyYW1ywdC'
p1236
I2
tp1237
a(g10
S'1GtxsccdF5DoUkCHRMV6VGrUegiViMET8X'
p1238
I2
tp1239
a(g10
S'1FQhH31nowyguT1Q7AmHx42uyFCKVnpnoW'
p1240
I2
tp1241
a(g10
S'1EA4XKw6j5SuYFDokY2WshCy7brfLVmyMc'
p1242
I2
tp1243
a(g10
S'18iht71FZ8Ra1DpeaRzuBmssjCgdqqB4XZ'
p1244
I2
tp1245
a(g10
S'13CC4E1dQiLHJ28HdFVNdr4Hmi8Dpk8Zod'
p1246
I2
tp1247
a(g10
S'1NQFTiAobkcQ7XykWocitmA3p1G4mhpyGB'
p1248
I2
tp1249
a(g10
S'19nHeaEzAMcYEpCk29JPjCcTRqxkrYDtRm'
p1250
I2
tp1251
a(g10
S'1KvmfkJLQ1FRLaHMn5hhdJ3sSmbRgPr4sA'
p1252
I2
tp1253
a(g10
S'1CxsGZDkmbjp9XokeTpgcxSzo2brUbhjRr'
p1254
I2
tp1255
a(g10
S'1NPNgNWW9VuJkAXRVS7M3xY2xj3x3Dh2jG'
p1256
I2
tp1257
a(g10
S'12URnmAUMk3J1V27vZoLoTqPRSZnWUqeH2'
p1258
I2
tp1259
a(g10
S'1N6v5bM6zc9YcHUwuPtL7yNGF7iULX9NLh'
p1260
I2
tp1261
a(g10
S'1GNt2fPETtJptEyt6TLQeN646ZnXPcVoy8'
p1262
I2
tp1263
a(g10
S'18F3JCmar1MkzvyFepmcYEpF7GdVPjCqvy'
p1264
I2
tp1265
a(g10
S'14kLu8qiu5XR8tmwxL2GbCXpfgtxMs2aTq'
p1266
I2
tp1267
a(g10
S'1N6GRLQcxnpFFAeX9ms7EMGzQp1GSSafBv'
p1268
I2
tp1269
a(g10
S'1FJygATthtXMZwAgJvsbcLktG1gMTPmoBT'
p1270
I2
tp1271
a(g10
S'1DPfSN17UuEVK8e6488uU2sMQ8f3YHsRJe'
p1272
I2
tp1273
a(g10
S'1EL5qT8dE62b8Y9keJCRL9yPGX5pHkmLrg'
p1274
I2
tp1275
a(g10
S'1Pqb2c8jB9MCq1eB97YAU5zacUictZpLd3'
p1276
I2
tp1277
a(g10
S'1JRDyMEgYgkhnYCV7QXdJ2oWymxEFs4K34'
p1278
I2
tp1279
a(g10
S'1EDGhxDYvMCyeV7ZbmP5XBQVU5Av8SssqB'
p1280
I2
tp1281
a(g10
S'1Hxe2bA3Sq3KhmyXg2RRbdxkRRz72cSfMN'
p1282
I2
tp1283
a(g10
S'1ChZVWdt9mRV5j7Bnm7A3LXzYf14gSsDV5'
p1284
I2
tp1285
a(g10
S'1KV7R7orz5V9hkHxbphYV9KbowLtprwBEh'
p1286
I2
tp1287
a(g10
S'13XFDotFLCJZE9eezpFVpeuk1E4xy3K4Wz'
p1288
I2
tp1289
a(g10
S'1D6o8d7w38nNDPwWoaa2dbesjKWxhu62HR'
p1290
I2
tp1291
a(g10
S'179PGiStpE9eLuKKfuJ7kALRdCY6etwGYs'
p1292
I2
tp1293
a(g10
S'16d6C1zBi5G8vdsrPiDApmK2CwyBdCKhLU'
p1294
I2
tp1295
a(g10
S'1NecgAswisKY4W7BJsWibtidLpbN8tjtEg'
p1296
I2
tp1297
a(g10
S'1G6PnnWNzbrVN1FMaDjRbf5y5sFtnrdznr'
p1298
I2
tp1299
a(g10
S'1EhR4ytRcCP64AArMbtpCQS73AdwwYgWag'
p1300
I2
tp1301
a(g10
S'1L4FuHMpSpPP9tbRKB718U3XyfqY55XsBw'
p1302
I2
tp1303
a(g10
S'1GsbUNWExDCk2gZEUtRnQbSi8EAMLxrvtb'
p1304
I2
tp1305
a(g10
S'1KCrYr3DQKj2HZUrKvzGfBGjR3QyVfNSXQ'
p1306
I2
tp1307
a(g10
S'1HPvqfs3uTPPzKkU9Z2UAnC79ZbTwfT9TR'
p1308
I2
tp1309
a(g10
S'1Ntdne2KsyfiYc9C9FTS9WbBufjeaKtBwv'
p1310
I2
tp1311
a(g10
S'1DgDrKnK6nDFR2KiNTiCtya2AhVximr6b2'
p1312
I2
tp1313
a(g10
S'1PxqJzWhiuUQcbw2DhjqQkNhuqRVC1f5q7'
p1314
I2
tp1315
a(g10
S'1HLwtSNqYZjFXaLV8Yr7SBWv3zzxjq2T94'
p1316
I2
tp1317
a(g10
S'1JAYLPbcT16m6wDuGE87cgG5EtFVzx66cE'
p1318
I2
tp1319
a(g10
S'16F2QVUAZyBS4ooWwMvqwft8oNFT1CZLQ5'
p1320
I2
tp1321
a(g10
S'1aYpRyEE4jbPWq3TZRWFUm4ZNVCfYvF92'
p1322
I2
tp1323
a(g10
S'1NP5HhYiPiydVWfLV9B3NNFEHKMoDCcVvd'
p1324
I2
tp1325
a(g10
S'1G1SnrcWQ4KUcyaQ8kNHvcL3DQdz9ctBTM'
p1326
I2
tp1327
a(g10
S'14JTTFjns62ve33gdyZYU4JU8cRqGoN72s'
p1328
I2
tp1329
a(g10
S'1CYpHpu2kHL1DfhaRMCNH1HMbD3ozTtY4M'
p1330
I2
tp1331
a(g10
S'1Br1RG5WxTEGBotxRWWMZj7BzJLU3dLFwQ'
p1332
I2
tp1333
a(g10
S'1CMsBAffrpgvfRN43WtbNfSjut8rQidvDC'
p1334
I2
tp1335
a(g10
S'12hyZcD35Nkrynu1qYD6n9fDDFywuVmYcd'
p1336
I2
tp1337
a(g10
S'121s6m5PAq7Yv5XyeRYg9n7WcoPBftptDQ'
p1338
I2
tp1339
a(g10
S'1GMAfj4Kw4DaSugGPJNQhepY17ETfc1pzL'
p1340
I2
tp1341
a(g10
S'17h8p68oacAyvBcQHKLZ4CVzbEyzA2Bpko'
p1342
I2
tp1343
a(g10
S'17A6brMWPHwg25zrQZfASPqoAU2VJKbGaZ'
p1344
I2
tp1345
a(g10
S'17617syPc5WMseDVc7qtKcyoqDQP6quUxf'
p1346
I2
tp1347
a(g10
S'13ReHFHUoHWNepeC5vs92ErLhF8GknQyQ9'
p1348
I2
tp1349
a(g10
S'1DnMQSyu2HoBPcTqJvr9NtEYwG21WiwBTU'
p1350
I2
tp1351
a(g10
S'1ECAATuFkv5Xn7CSg85FkMjvFBPf4c9LTF'
p1352
I2
tp1353
a(g10
S'17rebM2WGehFGmC163qPoXsSeXkXymgkqt'
p1354
I2
tp1355
a(g10
S'1Nkbt3DKXkiUpU4Zfihze5h7TkFsUAG4HL'
p1356
I2
tp1357
a(g10
S'1HEFRsXpybh4rHThngNz4uH5BbuRCffWvC'
p1358
I2
tp1359
a(g10
S'1MvvSxcDxZovKPscuXX1vu8xi1zZZKdgkA'
p1360
I2
tp1361
a(g10
S'1CGVc7gMuQ4F6ZHADW1eH3sYnZCAwpUwoT'
p1362
I2
tp1363
a(g10
S'18H1PKZpfC9juNidWaBD6Tq6aoMEmJZ9UT'
p1364
I2
tp1365
a(g10
S'1JRbzT2kdoEFPnmD74uxiNk8ANfy6dFE2Y'
p1366
I2
tp1367
a(g10
S'12S8PCuSmPXom4oZr5TMoxKLU3JW6MPvSU'
p1368
I2
tp1369
a(g10
S'1Am6wP8tFpv5P3GbMPTfDDxDq9jyUTtEWM'
p1370
I2
tp1371
a(g10
S'1U7mehgL3CVmRnrMCQTo7bkJmr8BvjTcw'
p1372
I2
tp1373
a(g10
S'17683X8FUF3PryWLsV1QLWSH4dFXVuDdXP'
p1374
I2
tp1375
a(g10
S'18ky9UFxr2rPsQ6At31puhb6TtdGyfDGVm'
p1376
I2
tp1377
a(g10
S'1PtztsQDH99gNSfy4qXXQ3kLyA7K7C8Qww'
p1378
I2
tp1379
a(g10
S'1Q2ne1xFCqFmME4vam1dtBSaJ2U2Nog4ej'
p1380
I2
tp1381
a(g10
S'1EVpmVkCEmpkVW8N3TAYfdTZtiDHgnGx6Y'
p1382
I2
tp1383
a(g10
S'15wPCya9w6JHpLseJNzr8s8pH2ZVYoZJtT'
p1384
I2
tp1385
a(g10
S'1A532vNfti4njbaJ14BG6tK4wvTVrcUZw7'
p1386
I2
tp1387
a(g10
S'1Gf6rPHR8wwZ9saovowrMMPjBCsGL5yBSF'
p1388
I2
tp1389
a(g10
S'1JPAHhLvVzKkmy4NsdRnrv8vFzZy6W1XWs'
p1390
I2
tp1391
a(g10
S'1AiQnTdhBC94hKVYGC8n32UnqkVZSDJqYE'
p1392
I2
tp1393
a(g10
S'1GCWT9SzcbZLNwcpNmhNM5ywzv3xfWQjss'
p1394
I2
tp1395
a(g10
S'1KXweK1LSGJYzF1Shhu71uL1yp1jQX9Ewz'
p1396
I2
tp1397
a(g10
S'15ktP2oZzUmfhJ3GHj2GH7g6XKEMWVQjXs'
p1398
I2
tp1399
a(g10
S'1AJTehnLZXJuzjTeetJnPwUjLE9w4mDMH9'
p1400
I2
tp1401
a(g10
S'13wzPG9vxeieb93Lfijtp7shd4pTanLoDY'
p1402
I2
tp1403
a(g10
S'1MgymcCJW864Nb6CoBd9XcBpT7yoQgTi2n'
p1404
I2
tp1405
a(g10
S'1HBdBpoLYv3VXzXjuWEZwQDgMkLqGtVRE5'
p1406
I2
tp1407
a(g10
S'197rHZi5aW2JZXhZcUrWjuCKt8iQktsego'
p1408
I2
tp1409
a(g10
S'1DudMVDFShwfLbU7hzHReQ8vgokQNWDUUD'
p1410
I2
tp1411
a(g10
S'15VtsYxK5gP6xThcjFA1RK4G1ezRQ2YTbp'
p1412
I2
tp1413
a(g10
S'1CE4nsHeQhpoUbZYzDFkJbviGEGp2TvqRw'
p1414
I2
tp1415
a(g10
S'1GzvfA2pn7At9siJBA3WED7LSva75ftDbv'
p1416
I2
tp1417
a(g10
S'1FSaD9ZbMdsGcaLbJMwhep3rQPCC5cwfMf'
p1418
I2
tp1419
a(g10
S'1PW6NQPVZ3TPNQ3sox5FcnKiGLFncBMxvM'
p1420
I2
tp1421
a(g10
S'1QF2iS3WuaotqNz9BLd1ibBkPxi8JYLJoU'
p1422
I2
tp1423
a(g10
S'1D52rfrWjorBQc4pKPAhTZwBh3BZRK5Wv3'
p1424
I2
tp1425
a(g10
S'1ANJ184EfGUWxoTQT2Js5QGbKvFWwoYUk'
p1426
I2
tp1427
a(g10
S'1GYjAviv9Y9q7qkbPr1JoXpJxjdu9wM2t3'
p1428
I2
tp1429
a(g10
S'1266DQhFzDFN9Yav67gBTxXka4CewoU9WV'
p1430
I2
tp1431
a(g10
S'1AtciV7b8LQ5y5iwM95MP7PP58GKLpwU61'
p1432
I2
tp1433
a(g10
S'151dPFCg8G4Ebo1qtWnwQ3v7BV2h5UofV2'
p1434
I2
tp1435
a(g10
S'1FdT84YMUeGtY9qfHC6ZYihYWk3WD5AFMR'
p1436
I2
tp1437
a(g10
S'18765cKS8gYMFxpa2sRirpvKfm5kSCCyy2'
p1438
I2
tp1439
a(g10
S'1Pumiygmzf65c9f5NLuzV6PiibHQXjTUaA'
p1440
I2
tp1441
a(g10
S'1NVb6u3ij4iSDwAy3tb8pKVjBZwBVYUTBz'
p1442
I2
tp1443
a(g10
S'1ChhFSv8AqSnpz5fm2XVk92LB7ZEnAARTT'
p1444
I2
tp1445
a(g10
S'13Tk7RjFsvjVbjGBkBwcLaJGyVbx3kLDdE'
p1446
I2
tp1447
a(g10
S'19gFpqaeah7vgShVeZMG3kHFPWi7H5rmHJ'
p1448
I2
tp1449
a(g10
S'1EeA5ZRbThwLkBHtkiRCp8CUFwg6VSEmuH'
p1450
I2
tp1451
a(g10
S'1KN8M73KqLSQbkgJH4a69KRzq4TzEPUk5k'
p1452
I2
tp1453
a(g10
S'1PDQYcDVtPvBTcXGGJDHxUe5pxCy9YxHCN'
p1454
I2
tp1455
a(g10
S'1GwnkKK6EgMoCXZ9CMSgaRf1NsGm9L9ALB'
p1456
I2
tp1457
a(g10
S'18Qgr3CJJaYxZjCSsq9pqHuMwAGXmoMfkQ'
p1458
I2
tp1459
a(g10
S'1KciLg9eDGaQDXWnidNejX5eLDmveZMLGX'
p1460
I2
tp1461
a(g10
S'14B3MZSJvPiUimKGSd8YKhLMNLrjJuT4JK'
p1462
I2
tp1463
a(g10
S'1Hr4Jf3GYmJQeSR9P95Mgtsd4HjrE94AvQ'
p1464
I2
tp1465
a(g10
S'1KQu4PAYqLcrmHoxYkwcE36T62Bn8cRzyE'
p1466
I2
tp1467
a(g10
S'1CMYheWG8WTjqYAZ5nTT3EGZTDUuWCTgAu'
p1468
I2
tp1469
a(g10
S'1MLeowu4AXDsQvu1cMrEGPUgppzwLRAMCf'
p1470
I2
tp1471
a(g10
S'1PU4N4smiY6G7eougzonUEL5h2LCTzBEM7'
p1472
I2
tp1473
a(g10
S'1q31semxuZjPUQuaCJGRhQ43rhq8Sa6LY'
p1474
I2
tp1475
a(g10
S'1PwoDYge7Rnov12hniTasUW6knjiFS8jaD'
p1476
I2
tp1477
a(g10
S'197LEocQtjfqTStyrJPvZKKNPhXk5jovuP'
p1478
I2
tp1479
a(g10
S'1LnnKUDFmRYqSHzktQGbeGQAyqDNVTLypx'
p1480
I2
tp1481
a(g10
S'19wbxefJyT8h9T1AxUn5Csi21FdUT2BVL'
p1482
I2
tp1483
a(g10
S'122jb4bxubwEWDTWbMUB8qxMqw4hCsaKbJ'
p1484
I2
tp1485
a(g10
S'1JadE4vcgCL6Gm6ueHoMmMifXnFuR92z1u'
p1486
I2
tp1487
a(g10
S'17kEodZrcB3asvLVjRQY6e5SZMzripkNcw'
p1488
I2
tp1489
a(g10
S'1KdjwbuiNv3tpj6q76bddszZiDda232Fjs'
p1490
I2
tp1491
a(g10
S'1DfM5wcMSuxEgFLd429NAFM1PLcC6segYV'
p1492
I2
tp1493
a(g10
S'19xcm1MHgAdv1VQJ31bA87B1cNGH9tyo4s'
p1494
I2
tp1495
a(g10
S'15wLrGvAgLmSjWKeYkYdqrdNdqNHFkb7ow'
p1496
I2
tp1497
a(g10
S'1NALj91t8nzCDQXtsHfxzfqZLkgeQY5Cch'
p1498
I2
tp1499
a(g10
S'1E73SM3hkHHMnHd9rjQR9khdDPduXBJBgW'
p1500
I2
tp1501
a(g10
S'13RZzEsXhc1E8oVLob3Z2Go7aj64F1QmhE'
p1502
I2
tp1503
a(g10
S'1KbbgPP9HrXvH64fNEHXmioFNEQKki2L7t'
p1504
I2
tp1505
a(g10
S'1BkTDZHGdnHBCS4yKNCWUoJXRmwCB2Tf3y'
p1506
I2
tp1507
a(g10
S'18SjX31WNL7z9SZZ9ka8bZwC5artF6p7pe'
p1508
I2
tp1509
a(g10
S'1GC7nURHkFS1SJ5VMuwXnpKgMmRj6E9yzc'
p1510
I2
tp1511
a(g10
S'15wPCya9w6JHpLseJNzr8s8pH2ZVYoZJtT'
p1512
I2
tp1513
a(g10
S'1JZtDDvC92bhbg6dED8TqRAUhjbFwUMhVr'
p1514
I2
tp1515
a(g10
S'1KvX95ynaJQYF4reeh37VkD8gPar2cFLMA'
p1516
I2
tp1517
a(g10
S'1GoM6gnyMDUNp3xoiaXASjogrGGhXiUK3K'
p1518
I2
tp1519
a(g10
S'16Q2hJRx4j3cUGtvRvDDeExvDDUfcRQZ9a'
p1520
I2
tp1521
a(g10
S'1B1Rxe3hh4faTFWoGVFkLkEyFh8sGcKwKm'
p1522
I2
tp1523
a(g10
S'1MZEooGdEVSDUFt25z8ZERtYmxt2TM4Zy6'
p1524
I2
tp1525
a(g10
S'1LvUHFaGMX7CjbMph11SgyUiHcyPHWCn94'
p1526
I2
tp1527
a(g10
S'1GEZNJL16R4vEQosBgwWZ27PdTka2NGEfh'
p1528
I2
tp1529
a(g10
S'12jyhK1mdCnQp6fS3NuwVf43Jzu2oGnBcp'
p1530
I2
tp1531
a(g10
S'1AbeKttbYgj37FN5QLD8QgX92ELkpbEY8r'
p1532
I2
tp1533
a(g10
S'1E1jK5iG9HamcGDf7j82SexkjJ9PDKxKWo'
p1534
I2
tp1535
a(g10
S'1BSEAXZpJRubrygzK1dp4aLHuL1zjtoZfh'
p1536
I2
tp1537
a(g10
S'1MMnRoDFyUVwCBD5BJr1GY37PcJgkMz1G5'
p1538
I2
tp1539
a(g10
S'18uxdfzeP83GJhLCoRpjiptUsBg9BVofz6'
p1540
I2
tp1541
a(g10
S'149tuA6cuP5akGAhJv2kxmsaeqtRPcK5KX'
p1542
I2
tp1543
a(g10
S'1JDwENNAiAbQt3BpkgSUmxt2eVPbQa4DtU'
p1544
I2
tp1545
a(g10
S'19CGyQ6cwL4HJCaijs5CWRrRr8KiEfUFwr'
p1546
I2
tp1547
a(g10
S'1FWfNbhtoGLPYFBLi8FvyBAKcE5SgJZvGL'
p1548
I2
tp1549
a(g10
S'1GWhR8Uh9M5bzKZrA2Lbe2pRGtC9RWVgmd'
p1550
I2
tp1551
a(g10
S'13oMhvEjLxdu8mrfWjq92udQAsgv3MYjwv'
p1552
I2
tp1553
a(g10
S'1CGtH4E5BnKX72FTKkJwCQp2HCSneU8SJm'
p1554
I2
tp1555
a(g10
S'13QsZaqBGoZsVxW7EoB4yrW2xDahYGoFwF'
p1556
I2
tp1557
a(g10
S'1PByUVM3Q41V6rmV5p9kJCQDEA9kSmr9iF'
p1558
I2
tp1559
a(g10
S'1N1AQnLN6bjWR5xBK9w9hH2NmrMfkKApZ3'
p1560
I2
tp1561
a(g10
S'1MoL4HicGBrRcA1jxvH73F1nL3AscEEfs5'
p1562
I2
tp1563
a(g10
S'1MAhBcPHxMFn81R5YnN2mJc5FNDoRhS9M3'
p1564
I2
tp1565
a(g10
S'1Q2Nb26nvaBfWPFVrChjH1eCYyLyfreEKk'
p1566
I2
tp1567
a(g10
S'1MKphUjcY3MRWa53Qcj4PbqBxGwdAE8Pjo'
p1568
I2
tp1569
a(g10
S'1DqVrC9FsZs8MGe8QRgQbxfRLLfEywJ6k1'
p1570
I2
tp1571
a(g10
S'1JwHvB4u1BqEQg7LSMJ5QHpEG9dLUnuiVh'
p1572
I2
tp1573
a(g10
S'1E7AHXt7PziL8KFjMYcvmHXFgRw8N4VJ7V'
p1574
I2
tp1575
a(g10
S'1AP7u7x28RcPfrRE3zd1vMQFSd1fiY6Mz4'
p1576
I2
tp1577
a(g10
S'1ExQog3Bi6uuzja2rVy2bcjripzuCfd7Hc'
p1578
I2
tp1579
a(g10
S'1421tBigr1cRBUMPF9aZ7UQUbxgYmfUC4x'
p1580
I2
tp1581
a(g10
S'17Mqd21TrUs5LmevteaBTkcpZvWUhXBgbS'
p1582
I2
tp1583
a(g10
S'13ELAfWrX1u1kHp5n8mphpjSNQ37Dm9qiU'
p1584
I2
tp1585
a(g10
S'1A6gvmA3Hrby3H97dPRafU7LoYZf92M3CB'
p1586
I2
tp1587
a(g10
S'1LvsHHQoT1R4QPNiEYp63s8TFU3Autp66q'
p1588
I2
tp1589
a(g10
S'14cEPvKxGh6YDKVBXFJXJsHpHC8tXSHt4L'
p1590
I2
tp1591
a(g10
S'1Hpw55DQqMRvMpHKsgGNnrxYW9TZ2zMFQY'
p1592
I2
tp1593
a(g10
S'1DnchRhqjmLyTBtcSrNWJVMk3PJAwcsbCv'
p1594
I2
tp1595
a(g10
S'1Ax5kij2pkPMdwku8VDqBbNMWPj7wDjMh6'
p1596
I2
tp1597
a(g10
S'1Mmnc7JALFMoqeY3xWvpFzejSjTAfkJoLJ'
p1598
I2
tp1599
a(g10
S'1GNAHLti37JkDuZUVWCpMK7mBVfiFJGV1w'
p1600
I2
tp1601
a(g10
S'16ABqfydbtZhLgVQ5MsHaRCMVgERhPeaYX'
p1602
I2
tp1603
a(g10
S'1EQavjUnhVuVVLBHrC7Jc47KdfLwNH5wi7'
p1604
I2
tp1605
a(g10
S'1MLVQxPxFJrN933Y23TxXTPMxFYQa9BFEy'
p1606
I2
tp1607
a(g10
S'19QCsNYikfUfDRqCzERXfvGnapZpihyqjC'
p1608
I2
tp1609
a(g10
S'1AVYghjHiM9i2pgLdWMWBy5hMaz8Xjqxq6'
p1610
I2
tp1611
a(g10
S'1Nbros84sphmAdK8dZsxjDCkhP2HA1MHtW'
p1612
I2
tp1613
a(g10
S'1GVvwb6fgEKMTjKVitfC35vp4mD3yRcyZq'
p1614
I2
tp1615
a(g10
S'1PfTcP1mNatJcQgHjWoXSnwy3cnmLeoQ6N'
p1616
I2
tp1617
a(g10
S'13umcaJBNNp5yZvoK852hSdfvxqEKM2Zzp'
p1618
I2
tp1619
a(g10
S'155umMdMUmSX9FPdTn3ZifkNn3BTDhj6Yo'
p1620
I2
tp1621
a(g10
S'1D9x6bT3JEnzpQaEqfbgMyNhLwsR6AQBkV'
p1622
I2
tp1623
a(g10
S'18orN8YNq5jVNxBgkjHC2rr3tG2pNqkE3S'
p1624
I2
tp1625
a(g10
S'1WU12ANYJ8aXcLoQBqYbYWN7VZuVEUQVe'
p1626
I2
tp1627
a(g10
S'1JQF6iLEAEneBP5rpYJwELxLnQtHpoNgrd'
p1628
I2
tp1629
a(g10
S'13TCnW4Wagzo6519niLiseQPsK3FxuQz4r'
p1630
I2
tp1631
a(g10
S'1EoaQpjraVt67BgyWixPcT7Pqfy6jC916c'
p1632
I2
tp1633
a(g10
S'1KpM1dKMC3EqxrsxgznAyEshMF9uoh77t4'
p1634
I2
tp1635
a(g10
S'1CWaK13D9FxFSPY2VrmmikQmLa4ZLNEZJ6'
p1636
I2
tp1637
a(g10
S'18pKycVHAB3AkYv1KuStNxcbR8BV3Fw6Go'
p1638
I2
tp1639
a(g10
S'13S4UzaGV64eRB3cockxBSLuDLprZ34ReA'
p1640
I2
tp1641
a(g10
S'1772hCrNbhM7CAf4C8KDQJyiiJA9iTRWzf'
p1642
I2
tp1643
a(g10
S'14mAyvZWFTAZ5nab5mEkY4ubAJ3MRiAWto'
p1644
I2
tp1645
a(g10
S'19DYujri7kX79WwtJ1bEd8Zp843HnLWTjs'
p1646
I2
tp1647
a(g10
S'16x4VmEtVXujnU2vFLgADfgci8kgttAfx3'
p1648
I2
tp1649
a(g10
S'1Gj1ttBt84ZGs8P5HqgXejSk1yQusyGJXW'
p1650
I2
tp1651
a(g10
S'1L3KrhyUBba1VrN2nPsRjd5gd929mnnAGz'
p1652
I2
tp1653
a(g10
S'1CRkzJo8sx1dVDzuEsaNFaPoZ4ADnFm7ZA'
p1654
I2
tp1655
a(g10
S'1Cw5au6iJsH4WpmZYhGgnpfqH9jUUQ1ZSV'
p1656
I2
tp1657
a(g10
S'1H7vaASRA8zUuVpFKKSxiysSinx7ACzVez'
p1658
I2
tp1659
a(g10
S'14KmRa8Sufw3FKc1za3Z9vWcSrowAs641f'
p1660
I2
tp1661
a(g10
S'1NTiUgskT58WP3wai58p2j5PcS1Tw1DzVz'
p1662
I2
tp1663
a(g10
S'1VeSDP1Nr7x4KsWdRb6ZGUxSJjkWL7UgB'
p1664
I2
tp1665
a(g10
S'1Lj8i8eNsxMt2nq8Vf9u4GjQ4y5gyuv4BD'
p1666
I2
tp1667
a(g10
S'1CNLFSTvrZvAMX4vKuSRkp6QzNZZH54Wdp'
p1668
I2
tp1669
a(g10
S'1EzR9b5uUpXi7wpEnrWxKCTwvrSjUoMNu2'
p1670
I2
tp1671
a(g10
S'1MNUbzkkM3HEyLkr1eYpozkcDKEzeEhm4o'
p1672
I2
tp1673
a(g10
S'164FY8SL4dhhSQrn7uk4NRBMrfMdqc1xtp'
p1674
I2
tp1675
a(g10
S'1JJ5EFjBEGnkbpEF7XkNPpCxp14bcuKx2r'
p1676
I2
tp1677
a(g10
S'1MoyMzzKe6pwFVsueAAfJoVzYqqt2rTXfx'
p1678
I2
tp1679
a(g10
S'1788nFKSsF7bumTb5rohD7JZVZqVjYRnoh'
p1680
I2
tp1681
a(g10
S'1P6QsuK6k2oZVBUU86MVWzwnoDYyFnb3fF'
p1682
I2
tp1683
a(g10
S'139Pqd8CcQFgb4bUf7dZ11UgVaJ3ohH6UM'
p1684
I2
tp1685
a(g10
S'15UGG4xXY6Ntcb4HUrtKhjKm2DSAr1Bk3a'
p1686
I2
tp1687
a(g10
S'1D21CK6sRRHoCjLisDLNa5R7hyHwXeyyKm'
p1688
I2
tp1689
a(g10
S'14pMAkbAb3ozTVnKTKKoVF5E5c7Z4s1NvR'
p1690
I2
tp1691
a(g10
S'14P4gmccv9g39A9BHpeHSyxneL7HrsFkm7'
p1692
I2
tp1693
a(g10
S'1DG2DHmCKf5Ag5ZstdTEqqcy7ovn5yedNg'
p1694
I2
tp1695
a(g10
S'1DtuZm5CZoqrnnrsyFAe2i4odGp9vGGecb'
p1696
I2
tp1697
a(g10
S'1AXb1d1NLRaz9xDJvkinjbWU31xLV2bEMg'
p1698
I2
tp1699
a(g10
S'14cjVzjqiq58anZ3MeaGLdbdy2kmfb4eEb'
p1700
I2
tp1701
a(g10
S'1Bi6RVLpDvNwurGZesRR3amJZhDAVGUryj'
p1702
I2
tp1703
a(g10
S'1LWxKocix1onLsT7EhtX6khRBw2ePCJvFh'
p1704
I2
tp1705
a(g10
S'1NUs3kggoYj6J6FZf1KntTxPyH4L5rDDUu'
p1706
I2
tp1707
a(g10
S'1NCassch28LiNGKgcmo4JMAp8ucUosRhGr'
p1708
I2
tp1709
a(g10
S'1J9jATgWZFFo4L3Ww4TD6X7iRqPFMExFxY'
p1710
I2
tp1711
a(g10
S'1NB2QLCuABBMeRnH9j3q9RAwxjqSnGBpwU'
p1712
I2
tp1713
a(g10
S'1NB2QLCuABBMeRnH9j3q9RAwxjqSnGBpwU'
p1714
I2
tp1715
a(g10
S'1NB2QLCuABBMeRnH9j3q9RAwxjqSnGBpwU'
p1716
I2
tp1717
a(g10
S'1NB2QLCuABBMeRnH9j3q9RAwxjqSnGBpwU'
p1718
I2
tp1719
a(g10
S'1NB2QLCuABBMeRnH9j3q9RAwxjqSnGBpwU'
p1720
I2
tp1721
a(g10
S'1NB2QLCuABBMeRnH9j3q9RAwxjqSnGBpwU'
p1722
I2
tp1723
a(g10
S'1Hz9BnjUxwaupa6UBw9hBajAXJuc3VEUV4'
p1724
I2
tp1725
a(g10
S'1Di3ac1AGVjHPpFARw9vWzZimvxSUzTCKF'
p1726
I2
tp1727
a(g10
S'1Ee5btD9GgzLG558TFZBQG7Jkch9v5ZAXD'
p1728
I2
tp1729
a(g10
S'1Dba33UKggMLkUxHvuB6apC6e74TySaFYx'
p1730
I2
tp1731
a(g10
S'1BVWMd7bonbsAJBgd8yf9DczMcU94LgZKY'
p1732
I2
tp1733
a(g10
S'1HxH3Bw2tSeBqvEAKhK448JjKJPoes2Dv4'
p1734
I2
tp1735
a(g10
S'1MCp5hxmtVpRnz7tZhhYxSeyX7sKAvPuZf'
p1736
I2
tp1737
a(g10
S'17DSzV3abYTa4K1AZaRNqM5gp9h81BC94T'
p1738
I2
tp1739
a(g10
S'1FyqGau7TVZ5JErorGeXkoX2T9YVwWEgVc'
p1740
I2
tp1741
a(g10
S'1L8kHNsZWbxoEeFuG4PMfxdMMezwKgvHgc'
p1742
I2
tp1743
a(g10
S'1GUssqbxhiykpFEVHzFGz1ttbwfEjAeMZe'
p1744
I2
tp1745
a(g10
S'1DDEeskLnnXjkjgLg7Eqrjdg61NtQC58GG'
p1746
I2
tp1747
a(g10
S'14pvRj7VybtSGCPS5uLP4FpPXoadU5BgNe'
p1748
I2
tp1749
a(g10
S'17pwmeK7fSrkPj6s7hNnfLrimKxadERYR1'
p1750
I2
tp1751
a(g10
S'1M1giG14cqG2jrubrXxibRJTzUJa6cETEj'
p1752
I2
tp1753
a(g10
S'15NPEJ3BLWFN8PotUAfEq7LrSxippN3S9r'
p1754
I2
tp1755
a(g10
S'1Q6hNNXNYAsz31UqbnzG1Yy6fZySkBoYGg'
p1756
I2
tp1757
a(g10
S'12oXLGgzWoJunqcS16jzs64kRDru3g3fUF'
p1758
I2
tp1759
a(g10
S'12DKHJB3TDrx9CVaHpYXf9EPwVfwLUMFtL'
p1760
I2
tp1761
a(g10
S'1Et4qcYgyYXoNVjH199FyDjAXf7dLiks1'
p1762
I2
tp1763
a(g10
S'1NNrXz7Xi8DnMVAfj1NtyoCcMRgv27xt6w'
p1764
I2
tp1765
a(g10
S'16wPm5ba5QGV4DdnZKNiNbQsEsCzHMWN3z'
p1766
I2
tp1767
a(g10
S'16fsWhcb5Y1apgn2Xc5mWxmnRpt6kT2M1u'
p1768
I2
tp1769
a(g10
S'16iQkAcPQ8vMSGrxui6o1Uyt7S9cKo7gGk'
p1770
I2
tp1771
a(g10
S'1JKmSfbHXXJvriSYcW1w3Y2V9awsHr3eNK'
p1772
I2
tp1773
a(g10
S'1FDDL12Sg8sqyuHTvtZzQcz34A8ctuFAwC'
p1774
I2
tp1775
a(g10
S'1CT616gn7KCokPvsRA4DDi2Vo7f1vQ8EPM'
p1776
I2
tp1777
a(g10
S'1HXLQ4vkgrsSM4QjyLykXsf4x5qV5hJWaA'
p1778
I2
tp1779
a(g10
S'1BoSCnz1ZtvvzeiymNogNE9buwQYgxRuNx'
p1780
I2
tp1781
a(g10
S'1CxU5b8wz8JTY27W4T9QQHZTNWSR7mWd2j'
p1782
I2
tp1783
a(g10
S'1DKmBnyNG8DKFczhkY1bXA4yWtPvUurki9'
p1784
I2
tp1785
a(g10
S'17ZXu63D5Pi4JnSf2YjofC2BHYPNcGKgDa'
p1786
I2
tp1787
a(g10
S'13qjydSVS1wwoz1WG5kqevP3knsnTKXQFs'
p1788
I2
tp1789
a(g10
S'16BavpwExzhwbumu8UnALEnriebX11wQCm'
p1790
I2
tp1791
a(g10
S'1AJizN1HxeCXcu8krjJAJcsiP6Uq2nMuRN'
p1792
I2
tp1793
a(g10
S'1BZ2NYMGKq1C6HcPUAdq11uWEswQFJM2un'
p1794
I2
tp1795
a(g10
S'14GAUSqgQhRQRCcaQwD77hLwhzydSMfms7'
p1796
I2
tp1797
a(g10
S'1CP2xRmd3zYNUoRpu9tDYk2BWLhkP1uFhq'
p1798
I2
tp1799
a(g10
S'19GTLYHrt1rSQJrRqHRzzYRPFEaQgZxXLE'
p1800
I2
tp1801
a(g10
S'1MBH4EazhW2FXfpB8RDAA4bAkJChNrXvJG'
p1802
I2
tp1803
a(g10
S'18pa33ZmNmw9L7mQZw4gcLiRi4pdGhmnTQ'
p1804
I2
tp1805
a(g10
S'15osLa4YvfbbUYYFwr7SUwcbKeS4HmcPVe'
p1806
I2
tp1807
a(g10
S'17xBRE8hqRNhoKTaS1LyLSRT7Twkj8sqfR'
p1808
I2
tp1809
a(g10
S'15V1kiamu22XMiVyrjs3bJjupzu8Mvy57o'
p1810
I2
tp1811
a(g10
S'1um92PP5Zxny2HpFpXeedNVsF4UTRv8Fk'
p1812
I2
tp1813
a(g10
S'1GMmPDD3yEVKaXsD2ApneLLxWDmM5JsVXB'
p1814
I2
tp1815
a(g10
S'1Q48bXc2Kjt8peC5VSxhST6KGrTgaVX68Z'
p1816
I2
tp1817
a(g10
S'15tr1AFqY7ShtSGVMEvQZUYSPCprdESsVw'
p1818
I2
tp1819
a(g10
S'13bv1ygLaFY6SCJTCVjcsvdAmbrq12s1MX'
p1820
I2
tp1821
a(g10
S'1FLfX9kYUwL8Y3CCjpMaBXUWugm5nWiHKu'
p1822
I2
tp1823
a(g10
S'1L55E6xVb3pWfZJLaTbBY41pm3kpgAry1t'
p1824
I2
tp1825
a(g10
S'1FP24kpzff7HroLjoveKUNauN22hvyswGX'
p1826
I2
tp1827
a(g10
S'18BAMnUjpaSGtdcDb3U4prkobjhNNq39Dy'
p1828
I2
tp1829
a(g10
S'1NB2QLCuABBMeRnH9j3q9RAwxjqSnGBpwU'
p1830
I2
tp1831
a(g10
S'1EFfaPatv5RBBXboJbiz78EpWqpWp9kHXB'
p1832
I2
tp1833
a(g10
S'1BxYQEKhm7JGWiWu6spM7ioxPLRwXf7j3P'
p1834
I2
tp1835
a(g10
S'15U2Jz5wEmvikMbTxTKJ6JPMtApYRd6zjj'
p1836
I2
tp1837
a(g10
S'1GKSen66wwN8nJPX8VK4tBFcaJjBJEWn9J'
p1838
I2
tp1839
a(g10
S'1AZhdA89W53uQwoFpStcJGeXT6ayL5LD8s'
p1840
I2
tp1841
a(g10
S'1ATk32fEUPT54V8x2nvkG93HNcjbHujH9Y'
p1842
I2
tp1843
a(g10
S'13gm3KWePtrSdzMWDyPXsCiZ3eHT56S9BS'
p1844
I2
tp1845
a(g10
S'1Fzjs2nE346S4eWentxDpuue4c8SPMFbbH'
p1846
I2
tp1847
a(g10
S'13KDF5rVjwtXSH4Wn3gvUXvxBe4LYhoHnD'
p1848
I2
tp1849
a(g10
S'1NB2QLCuABBMeRnH9j3q9RAwxjqSnGBpwU'
p1850
I2
tp1851
a(g10
S'1NB2QLCuABBMeRnH9j3q9RAwxjqSnGBpwU'
p1852
I2
tp1853
a(g10
S'1NB2QLCuABBMeRnH9j3q9RAwxjqSnGBpwU'
p1854
I2
tp1855
a(g10
S'1NB2QLCuABBMeRnH9j3q9RAwxjqSnGBpwU'
p1856
I2
tp1857
a(g10
S'1NB2QLCuABBMeRnH9j3q9RAwxjqSnGBpwU'
p1858
I2
tp1859
a(g10
S'1NB2QLCuABBMeRnH9j3q9RAwxjqSnGBpwU'
p1860
I2
tp1861
a(g10
S'1NB2QLCuABBMeRnH9j3q9RAwxjqSnGBpwU'
p1862
I2
tp1863
a(g10
S'1NB2QLCuABBMeRnH9j3q9RAwxjqSnGBpwU'
p1864
I2
tp1865
a(g10
S'1GsvNR7hKKcCWwZTrS3QxPjnziTsh5caZ7'
p1866
I2
tp1867
a(g10
S'1CdypQ8DfkNsfM9ynvDcktcD2N3UNmpHNn'
p1868
I2
tp1869
a(g10
S'17ymCNfVcfWGQcjGaF49ogjtka8fDkk4aX'
p1870
I2
tp1871
a(g10
S'1LZZXEJRVA9DXu1GeNEySmVvToz3sX1xPk'
p1872
I2
tp1873
a(g10
S'1DuvkNGTWL3jacrFLofRwAogUkEQ348b13'
p1874
I2
tp1875
a(g10
S'1Ln6gXsoFVVjPy9uKnwNvac4GKahjk3NKX'
p1876
I2
tp1877
a(g10
S'1BeQkSRUihMo58vQXBgoKtgedFncpuTn5p'
p1878
I2
tp1879
a(g10
S'1NB2QLCuABBMeRnH9j3q9RAwxjqSnGBpwU'
p1880
I2
tp1881
a(g10
S'1NB2QLCuABBMeRnH9j3q9RAwxjqSnGBpwU'
p1882
I2
tp1883
a(g10
S'1DuX3aafK63M5iPKFvZRu5LhSmvR2sdUJT'
p1884
I2
tp1885
a(g10
S'137fPPM6X8pp1i3GhmWHnPaJ3hu2ZaTssb'
p1886
I2
tp1887
a(g10
S'16qTQTnp4wEGsvn76dRmKUPKhKqBkbaaUp'
p1888
I2
tp1889
a(g10
S'1HsyjsDaWEaicbqp5WHDzJ9pFc59BkV41Z'
p1890
I2
tp1891
a(g10
S'16jbco8sGAFnLCk6CQBEdJwZjMx3LZsYPa'
p1892
I2
tp1893
a(g10
S'1CFCsWkP71gcvzgfmHqrbwLmwRzKLHQkWn'
p1894
I2
tp1895
a(g10
S'14TgfySqXAdkPJTyirbqr4yV77eDAGr4YM'
p1896
I2
tp1897
a(g10
S'19MtvVkxq8bbE9NSQGFav5C3JVGZwvnxAh'
p1898
I2
tp1899
a(g10
S'18K4bF3wRhzF1goiYKw91UqsxiLZFmcd4B'
p1900
I2
tp1901
a(g10
S'13X3N2swFLFXHMxkVxfzVAN4sgQz5jEFVb'
p1902
I2
tp1903
a(g10
S'1CvAGY4xDD2fiPDMzEs66PxwjNmdbB6Uo6'
p1904
I2
tp1905
a(g10
S'1MgEjyQ8YNDBU5xr9nyYnef3Z6xFnjMN1i'
p1906
I2
tp1907
a(g10
S'1HSdAkFkEbDoMZKJtMUKYfYp2ciJmCDcH'
p1908
I2
tp1909
a(g10
S'1MKAB6BdAV1w3Ns1geW6MHw2LdCq3d5orp'
p1910
I2
tp1911
a(g10
S'13yfFy4eRrc11FcN3RMKVeqk5ghdvATdC6'
p1912
I2
tp1913
a(g10
S'1KhiQdTec5aoqV1aUfHVvebRDcbz2NMCW'
p1914
I2
tp1915
a(g10
S'1Fs6eQ8JV5oAthc4htivoPChHrAknBNE7u'
p1916
I2
tp1917
a(g10
S'1NqMifhJtDSTuFoGtdSg7ibzVYsinUntpu'
p1918
I2
tp1919
a(g10
S'1Mv5b5u7kpR2V16YojJbWze2YSBcMHy3Wz'
p1920
I2
tp1921
a(g10
S'1CZR9EmVddCbjMR3Rm2m3BNk17FXE7ypgh'
p1922
I2
tp1923
a(g10
S'1JV7E5dy13rDEJK9iU5Lhn1Pca4ihKne3q'
p1924
I2
tp1925
a(g10
S'19dbY1ZSs5CuGdRsTKS5q5noSNfdZX9JWd'
p1926
I2
tp1927
a(g10
S'196WhNJsM74r747PHUuqXJJHEZYVeAfE6X'
p1928
I2
tp1929
a(g10
S'1PAPnHHrRo28Yv9jhA2125pS4ryDPCr6Wc'
p1930
I2
tp1931
a(g10
S'175thnDrYieSTcLkcpDK41YJJe4ruyfTvh'
p1932
I2
tp1933
a(g10
S'1NB2QLCuABBMeRnH9j3q9RAwxjqSnGBpwU'
p1934
I2
tp1935
a(g10
S'1NB2QLCuABBMeRnH9j3q9RAwxjqSnGBpwU'
p1936
I2
tp1937
a(g10
S'1MGUYXFjcrRvMgcK5imJKULKGH9CATHb9N'
p1938
I2
tp1939
a(g10
S'1LpzrgQoZH7LDNZBYcVqAG7w76nD99BpXQ'
p1940
I2
tp1941
a(g10
S'141ewzuLiZQcbsn3qNJMXwfcYmfxY5GHyg'
p1942
I2
tp1943
a(g10
S'19cCsbkcy6ABnDLomMTfE3AEaXZ943htu5'
p1944
I2
tp1945
a(g10
S'18NhThnA6bsmkn9s9QmCMaMqPRZrzfBJwd'
p1946
I2
tp1947
a(g10
S'1KW4XZ6NmfWQH4WFeNgccjJHNRtNfEwDGW'
p1948
I2
tp1949
a(g10
S'1NB2QLCuABBMeRnH9j3q9RAwxjqSnGBpwU'
p1950
I2
tp1951
a(g10
S'1NB2QLCuABBMeRnH9j3q9RAwxjqSnGBpwU'
p1952
I2
tp1953
a(g10
S'1NB2QLCuABBMeRnH9j3q9RAwxjqSnGBpwU'
p1954
I2
tp1955
a(g10
S'13ShhEA82DncrzhCegvSNFa2UMSRFqcfd3'
p1956
I2
tp1957
a(g10
S'13Fqt2NLNBV97rfQQ9MJSv1VQQU6X5MsdN'
p1958
I2
tp1959
a(g10
S'1NUXFGMqZy7gr7xToSZqQenaNkvp9tAksN'
p1960
I2
tp1961
a(g10
S'1Fn11ogD9EghqwEuAnBkkYxN2wpsB1nwAB'
p1962
I2
tp1963
a(g10
S'13Fqt2NLNBV97rfQQ9MJSv1VQQU6X5MsdN'
p1964
I2
tp1965
a(g10
S'1Ed7JREwRU4CfB4LZoo7jt6LZUUiWZewjj'
p1966
I2
tp1967
a(g10
S'1HkVuiXZwKfkMBfK5DvtJcMBkqTe5wn8HS'
p1968
I2
tp1969
a(g10
S'1ASHyA8GDNStjXckYAhwo5eTHL3wkZgoDF'
p1970
I2
tp1971
a(g10
S'1CPDVPV9PX4U6q2hs291NMDi2XudMzLJZ7'
p1972
I2
tp1973
a(g10
S'1FvGfbBWvjBwXsSwawMVEXBuCkpVMsxd7X'
p1974
I2
tp1975
a(g10
S'1L6Y8iUR1dNmKPtN3HjApQkDzsYAsJU9pZ'
p1976
I2
tp1977
a(g10
S'1CTwKJT8HRc7iCMaTPRQbaFMV63oZpSLrZ'
p1978
I2
tp1979
a(g10
S'1DcVQU5nd1nvavfSjNbCNJJ6N8HQYe1PC2'
p1980
I2
tp1981
a(g10
S'15dWTko1GtegxM7E6reMG5fYQiXQL4tiro'
p1982
I2
tp1983
a(g10
S'124W8HZcNahyTzjC4uZjpMsUFFxxr6ikzk'
p1984
I2
tp1985
a(g10
S'14iy2xBPXc6d9bkGf2qTUsvPUFPRengezp'
p1986
I2
tp1987
a(g10
S'14uEiiqxh4yUkdegeR8gttWPRQXxWydQyE'
p1988
I2
tp1989
a(g10
S'19QBAHnb5nwShZQQ1TxFHWu7BLLeQD3yvK'
p1990
I2
tp1991
a(g10
S'1JZb9cBLyUu5zycsCfhFgmdUDPjRrxAhF3'
p1992
I2
tp1993
a(g10
S'1CXDKALBniKR6zAmFkmqJorddfpiWs2yGU'
p1994
I2
tp1995
a(g10
S'13pE7LFmuH7wdefQkRkvWmpNXRv9C9nRS9'
p1996
I2
tp1997
a(g10
S'1AACjgorwv5T1jpNTciMe8sGrhmtyfuPT6'
p1998
I2
tp1999
a(g10
S'18Few1q43aAS2XBYXP4X68tBTqtA6HsuBV'
p2000
I2
tp2001
a(g10
S'1PyXEjZ1Px2TmhC1xm3PaUQxGKTctawRV8'
p2002
I2
tp2003
a(g10
S'1EoWv6bucg4u2XGFKMEGvXTK6dHuQrT1j8'
p2004
I2
tp2005
a(g10
S'1Fev5f9dDti1Tkbp5sWaQK5h7rEADdZnKd'
p2006
I2
tp2007
a(g10
S'19Qq6KKTZUu2ZUNWUofPj7Yb4FBakPRdqk'
p2008
I2
tp2009
a(g10
S'1NBAT1LMTsFVoe3ZziKLQB73r4gShWLo5s'
p2010
I2
tp2011
a(g10
S'19ZvqJbfHBcKastX7sMh1DcABAZhQpqdn6'
p2012
I2
tp2013
a(g10
S'1F9jsDLGP37QPh467SCjLEQpKBLB3anok8'
p2014
I2
tp2015
a(g10
S'171EcKsgNvAVuCRLKUTncT6kxWnLAJbmak'
p2016
I2
tp2017
a(g10
S'199ZKRY7t212m4cJEtRzst1hNgxL9LGrZY'
p2018
I2
tp2019
a(g10
S'1KZmxbRVHSw8DGkw1r4KYMgt9i8xsukyQC'
p2020
I2
tp2021
a(g10
S'1FAjRfR7sYUVigmH1avRbEzGX3UCC1rNpV'
p2022
I2
tp2023
a(g10
S'1NxXq8ir3ztXzitR6iAjhZfxa1FD89F3Nr'
p2024
I2
tp2025
a(g10
S'158SdnK7spXRbE9KQW8NToVUusDLLxKbD1'
p2026
I2
tp2027
a(g10
S'199ZKRY7t212m4cJEtRzst1hNgxL9LGrZY'
p2028
I2
tp2029
a(g10
S'1FAzohDoRvUmUFP2WZsYmb6PTbDviZRpqg'
p2030
I2
tp2031
a(g10
S'1KEwiFjrWaKy6bEL7gsmsFay64T3tZr5Px'
p2032
I2
tp2033
a(g10
S'12mG9VNMXhtP2NiXxZd6qez9vA8Cc5hw2n'
p2034
I2
tp2035
a(g10
S'1Q7ne6U6UAxATmQ8HPnxqxD3L8fvWA57U6'
p2036
I2
tp2037
a(g10
S'17RaxLwdJvTT3zJaM9YzSvMKswWHBrHai5'
p2038
I2
tp2039
a(g10
S'193varKePk4pjf5PctgB7G4RfxVCBqE5Lv'
p2040
I2
tp2041
a(g10
S'18AV3U5XDe1zk4qRtnScxcKQtUbJoqcgJR'
p2042
I2
tp2043
a(g10
S'12Mm8AhW4AZzWyHndwGqvDUJefSZhqecWn'
p2044
I2
tp2045
a(g10
S'17BzqLLN6wWFG1NcCwARz7qDmWhj5nSUvW'
p2046
I2
tp2047
a(g10
S'1F6jxcjFGS29G9ZgXvRBaMi6N3dT4GQFPe'
p2048
I2
tp2049
a(g10
S'1A3HFbGwUL3U6aYuytMRb1k97dk1SgvzWf'
p2050
I2
tp2051
a(g10
S'1Pra6znRTbECMU7B2hdwDNvUKpDR4op2mM'
p2052
I2
tp2053
a(g10
S'14F5k66Vf6zvmceUujygZihrLroJoYcS6a'
p2054
I2
tp2055
a(g10
S'15mTgin2XQq27BhoJ9AZyo2EMauDus9qwS'
p2056
I2
tp2057
a(g10
S'1KZmxbRVHSw8DGkw1r4KYMgt9i8xsukyQC'
p2058
I2
tp2059
a(g10
S'1PoVo8Ku7niBaVsZQj2DT6BC9e55HHppUE'
p2060
I2
tp2061
a(g10
S'1QHr8nFx7M3YVBm49HET9S7T1HLr6e22jJ'
p2062
I2
tp2063
a(g10
S'1HW6saKXRqTMbcgLCsD4Qe4rt8tNJk2eCG'
p2064
I2
tp2065
a(g10
S'1BAyixQSsyuYCVp6uHSKqgC28D2nF78Bt4'
p2066
I2
tp2067
a(g10
S'18hokvLQRC1RBKG7Ah6C4JEEHgudetvVPx'
p2068
I2
tp2069
a(g10
S'1266D7h6pR4Qxx2b65c6f381gxKidVAZ7T'
p2070
I2
tp2071
a(g10
S'19E9ozAqePaQ8aTnB57avT1mQZwEjiARZT'
p2072
I2
tp2073
a(g10
S'1AK3H4zubtiMioGqx35DzzQW3gY6eymgQ5'
p2074
I2
tp2075
a(g10
S'162kA2MB3ZqtGbV1XgVwxC92TeurrxYpX9'
p2076
I2
tp2077
a(g10
S'12RtDAPqtjqXFaBtHsFB7XG4PQf79eBt72'
p2078
I2
tp2079
a(g10
S'12167Moj3grC1n44NoK4MSNgrE2j7zmWYo'
p2080
I2
tp2081
a(g10
S'14NX1upaPNCopzLLQHDmyr6L8EvpnWdiRu'
p2082
I2
tp2083
a(g10
S'15FTKFGAftA53HhugVTw7ZVH3rHyS1n6j3'
p2084
I2
tp2085
a(g10
S'16U25162hYNjMqKT6P3XSq1kxn41MfiiKJ'
p2086
I2
tp2087
a(g10
S'1NyQxHPujjbHdCGR8HoworHTXMZaoBddmk'
p2088
I2
tp2089
a(g10
S'1Lt8qjU8byiHnASw6U9MCnFJtsrS5B3EPM'
p2090
I2
tp2091
a(g10
S'1HcYwKeupvM2XVWyQPCr2MgRTDJ4fZokkd'
p2092
I2
tp2093
a(g10
S'1NUeAXtmoi98sBZRvmw8S46BX5B4gXRfKB'
p2094
I2
tp2095
a(g10
S'1Ay3gjULod4JUD3aFVuV6CBUGLjS7kmGUt'
p2096
I2
tp2097
a(g10
S'15KohP6mEPJMPUvWNJ8FJgmh1Xfbayu7hX'
p2098
I2
tp2099
a(g10
S'14AdYyWkcP3UTLHv3DsmD1raZx78gxepzC'
p2100
I2
tp2101
a(g10
S'1Q18GNB5q5CbbxcSRb5NitULpcVMHBGu8R'
p2102
I2
tp2103
a(g10
S'17xzPFqkz745SdmG2VCQ12VgAyaeLnTvdi'
p2104
I2
tp2105
a(g10
S'1J3u933RqrCufTZzT5K3iGuW9ckuESmtnX'
p2106
I2
tp2107
a(g10
S'1NwuNMSViFub4CBWHHeq7VQtyKMrNqvQks'
p2108
I2
tp2109
a(g10
S'1HVBnLQT3knT7FoeNtfsYo2WTsc7MaVav2'
p2110
I2
tp2111
a(g10
S'1N74DthbSSNZJZJf8Cuf3SyMaBWDEe23Aj'
p2112
I2
tp2113
a(g10
S'1AinsXi8xr57Gw8Bwx1W6a9Ab8moecpdAg'
p2114
I2
tp2115
a(g10
S'1GxnFPDFWrQ5LNJiEEdd6BHjNsPWLHNCU3'
p2116
I2
tp2117
a(g10
S'17QF1E57yAVY8eRJSCE8EUKEqhtSt9ERw4'
p2118
I2
tp2119
a(g10
S'1GVCPEs48gKN11bdAdy4hbYukxbpnwkPnE'
p2120
I2
tp2121
a(g10
S'1L9PcaKksjHGkZW6hvEEavhGJ2HgxviUJn'
p2122
I2
tp2123
a(g10
S'1B4z43s2xi4UKaswviEUHZhRvRCSDwegv2'
p2124
I2
tp2125
a(g10
S'1PJqVFXDUV4g6wWPgujkpbndEVCgr3bGC5'
p2126
I2
tp2127
a(g10
S'1ETC8X5cyvmcu6kbtQZywrKFeAFykRn6Ni'
p2128
I2
tp2129
a(g10
S'15SVpaXfA52wfn5ohkHALe3zFWxRnL32wy'
p2130
I2
tp2131
a(g10
S'1HPTXsrNat1PAz5Q57Scs9DL3eNBo62Q3C'
p2132
I2
tp2133
a(g10
S'13YX1gAiRaQGDGp82etZJBE4YWbDYppDJV'
p2134
I2
tp2135
a(g10
S'1KtNhCDvrAjFQvD57VLeea5gYRTGi7Fn1C'
p2136
I2
tp2137
a(g10
S'1P5SjbTMQt4919QgKyztcrtScMEjPeFN3o'
p2138
I2
tp2139
a(g10
S'1LofK98cSiUi5BvEdDp44L8NZim8y756zN'
p2140
I2
tp2141
a(g10
S'1KS62NSz7AHCyuUGZCTNVeM8RacfBSoDsY'
p2142
I2
tp2143
a(g10
S'19WvW1ddYWr7ddy2RLiGrRv8Pu7TU3trwY'
p2144
I2
tp2145
a(g10
S'16LDkYD3e7Ndgpj73RWcCU3T1VZEZpYPNm'
p2146
I2
tp2147
a(g10
S'1F8cXSxNnShtbWyfQT2kQ5penkxgakHQza'
p2148
I2
tp2149
a(g10
S'1AgjqBm5sdcPkg2iXvZcY3UWu1ekHFP9tK'
p2150
I2
tp2151
a(g10
S'1CqkeZPbTebb1v9tpqQ2NQVeTThnWMQAAQ'
p2152
I2
tp2153
a(g10
S'1HWwZBx4HBAq1ojG29XdFDR4BF5Foh8rEt'
p2154
I2
tp2155
a(g10
S'1NtUM5MRTnXRMG7oagj6nSNKLfUGH1z34K'
p2156
I2
tp2157
a(g10
S'1G2Ptw6SqZ9rBS4yargPdUqi9BKM1ncKMw'
p2158
I2
tp2159
a(g10
S'1BdLjGgBcsrC5cWoR3W15WyrBEDsJiYLcg'
p2160
I2
tp2161
a(g10
S'17a9iag2QstvwxkkNnkUkqSwHLGKa34WHs'
p2162
I2
tp2163
a(g10
S'1nd84rJxXCdz1neSJDQdtKTXAUjWqEUXs'
p2164
I2
tp2165
a(g10
S'16UpuBEvNJjS9kuQjKdAHfNsjYMD2fdxBJ'
p2166
I2
tp2167
a(g10
S'1Ph79XV84qHvpShVRBfj482vCKR5qcMVox'
p2168
I2
tp2169
a(g10
S'1Nd3qEuo8cpzwjDPDTXUffrgHS6SzFkYQ9'
p2170
I2
tp2171
a(g10
S'1Agmd9ri377z8kWCbYAZUJKDiiSnaQseGn'
p2172
I2
tp2173
a(g10
S'14SwuVPrpfZo29QQdgUbiQ9hd1E2hPSDkn'
p2174
I2
tp2175
a(g10
S'1JcV8ZrM2NGD76PmaKLfoF8Yu2fe47vBSn'
p2176
I2
tp2177
a(g10
S'1BdQDw8TrJwdSGUdFftfmtLpeF16meEoKS'
p2178
I2
tp2179
a(g10
S'16tyWNJ74PUwrrx7qdQPwDUwy8wTfQ99JU'
p2180
I2
tp2181
a(g10
S'1NMb3Z1CDQp6ruSC9nkMcrqV5rrMYPj46c'
p2182
I2
tp2183
a(g10
S'11573bb7nxqLbWbSpoZZhnRJFm6p5M3k3e'
p2184
I2
tp2185
a(g10
S'18TLNYkCkVeL1ywmjuN8S26kvAH8vxzg6W'
p2186
I2
tp2187
a(g10
S'1B28SGQLdBYdrEPuW9xyBwtqm2N3YkvCf4'
p2188
I2
tp2189
a(g10
S'1CL5xTkAQ95xQTTsaVxzkgozzcNjsVeeCP'
p2190
I2
tp2191
a(g10
S'124UNr7QL3tnc8dtyVGw85swtgxF9okugQ'
p2192
I2
tp2193
a(g10
S'152ukhmhNhgNFZLbULdjKkFaHPBUxP5znA'
p2194
I2
tp2195
a(g10
S'15TfNErpRJNAmm2EAn15HMbntydsCDdC6B'
p2196
I2
tp2197
a(g10
S'1EDeARSLvcWb7D7VPxDEW1b7nZZy545sFQ'
p2198
I2
tp2199
a(g10
S'1A66m8PPXqwEaPwhtreEUHesCQMW7mCziR'
p2200
I2
tp2201
a(g10
S'18XY1Mcy3hgvjbbzqwaaKKz5QwdMKp7Yw9'
p2202
I2
tp2203
a(g10
S'1DHGEakgFQit4PK3LrbmszZUKYLYp52L5n'
p2204
I2
tp2205
a(g10
S'1N5UTxT19JGarU5BvXES3twhQvCsoC17Ze'
p2206
I2
tp2207
a(g10
S'1McuZn3Q4wDUbeK2FubaLpg4qEUtJxsYXQ'
p2208
I2
tp2209
a(g10
S'19WNNS1rhPN35XiZtRFbz2tYwfeHr6Nx8w'
p2210
I2
tp2211
a(g10
S'1Fy2SNmrADry7osXaYbCEavyyHoDHdHFob'
p2212
I2
tp2213
a(g10
S'1MJ9nQHv35Gdy6QEoYjKuTjfx8WEoT6UKJ'
p2214
I2
tp2215
a(g10
S'14jFKrwfuwjs5DuWcQ54vLYtp4utQWnLun'
p2216
I2
tp2217
a(g10
S'1FLUoGZTsoEv4VWbXNMr343pGwALDBnQnX'
p2218
I2
tp2219
a(g10
S'1FwkvPRrrgf6f9kAr9U4JMTEdhuMXASKKN'
p2220
I2
tp2221
a(g10
S'12HZC45wkjJgAR9e2yBH4VRC83vFvDPua7'
p2222
I2
tp2223
a(g10
S'12CYEx9YebmRiuGb9hS7x2dMN3wiYp7Pfz'
p2224
I2
tp2225
a(g10
S'16qwe5c2AyKzSAuNh7qbqUzH2brmbAhi5o'
p2226
I2
tp2227
a(g10
S'18ZYCLqY1wbY8bX5rtdzTnidZsKa9p3nH2'
p2228
I2
tp2229
a(g10
S'1AQXDKdqYsRVUC9w2EQgPLEjCBsvpYhLxW'
p2230
I2
tp2231
a(g10
S'18VTdMUiUtGXLR2e4muJMNn1kSHZMbAFfp'
p2232
I2
tp2233
a(g10
S'193oqG1vjTaCzP212zx5typjTJtVp9EjmF'
p2234
I2
tp2235
a(g10
S'1gg9jbGREApAeakLTLKG7deE7LYiJ9WeX'
p2236
I2
tp2237
a(g10
S'1GEHuzP9QvF717Srs7xgEXkP7Vsde4hbi8'
p2238
I2
tp2239
a(g10
S'1EPUm1u6vDSBzf2fHvc6YGmXV334KxgNuF'
p2240
I2
tp2241
a(g10
S'17yaPGk37pPJtfHb13a9DVSsgGLeZaiXuw'
p2242
I2
tp2243
a(g10
S'14JugcGtz6Javq4wAZyS2t3N3bf4bdDfYU'
p2244
I2
tp2245
a(g10
S'12GMsfAJE6CXHNgeuCgQZZS3vDQd5ZkTVX'
p2246
I2
tp2247
a(g10
S'1PxAMsbytSNtgRVKJuRsdt7Rmm84Trx4tt'
p2248
I2
tp2249
a(g10
S'18z8yzSKQ1yv7FZxbJdBRyDJDzVjbeZ49f'
p2250
I2
tp2251
a(g10
S'1DNZbRWs3cQ64Q2qhyoyCuDaRinVswyn9g'
p2252
I2
tp2253
a(g10
S'1Mfud78rQssyzDDjUvADWpAdvjQ9p6J8TV'
p2254
I2
tp2255
a(g10
S'1N4Efxupg2c73gsfU4ggxhUZSpAnBSkzMk'
p2256
I2
tp2257
a(g10
S'19eJ2R3s7FFeeEeEkdwTVsd2N5A8eXoCer'
p2258
I2
tp2259
a(g10
S'1MbNcBUhDBQAzHsc6LWrNHyNYXbSnwXgUG'
p2260
I2
tp2261
a(g10
S'1S84AD8v4HXKzW8nAYYbRKqbiPVfhJ7Wc'
p2262
I2
tp2263
a(g10
S'1MwZaQ194CgQcjsRGSrP4YaUv3feeFpmtK'
p2264
I2
tp2265
a(g10
S'1FXVsU5zJgeMvowU7yausLxC43w99Xi5Xf'
p2266
I2
tp2267
a(g10
S'12Txf1Wx1zjJ5SuKnkNWbAC2yf3mqNYieZ'
p2268
I2
tp2269
a(g10
S'173Hkir4Ze6VFbwH6euTQDpJpHakqJkbNf'
p2270
I2
tp2271
a(g10
S'1LEo7YTs1EhjpCv42sDiWCf71E1DHvct1m'
p2272
I2
tp2273
a(g10
S'19FFAsEYDSyu1JtNj4NsybkNg6eoSZR6hL'
p2274
I2
tp2275
a(g10
S'1YQVqJZg12BKA1Q8ngwp7p3tGnp1uE1Ss'
p2276
I2
tp2277
a(g10
S'1GMpS1kpnhgMkjfFQ4YUJPqnCaDSDt6don'
p2278
I2
tp2279
a(g10
S'17q7aNVcFecLk8MKyDS4Y456cPsJWVSvvo'
p2280
I2
tp2281
a(g10
S'19En8DLTpkEadhA9ZVbVrGUzTKaXja9pCA'
p2282
I2
tp2283
a(g10
S'1PME8ZpUAx2jgqZKBWwoYjUMuTZ6cmk2c3'
p2284
I2
tp2285
a(g10
S'19gyzNnShnSR94RPPTcvWo9Lryr6379jHJ'
p2286
I2
tp2287
a(g10
S'1BdU39EKAMKGP1ojre8Z21ZMmNC3bc63bi'
p2288
I2
tp2289
a(g10
S'17S5jogxZQ2kZUvg297UsQEH4B2Fm3khDg'
p2290
I2
tp2291
a(g10
S'1KfM2aqZQrAXWRw8sZiwFWfv9BR4QY29wD'
p2292
I2
tp2293
a(g10
S'1JoZ4p4N14EB8PKF8j8B4bSJ3XXFmByUcB'
p2294
I2
tp2295
a(g10
S'12uGMvxb7FkDsXAQyLAxSfXjiCVvZmbUuR'
p2296
I2
tp2297
a(g10
S'184DLDj6K2k8Yho5i2dXvNYm1JcqJyMzE'
p2298
I2
tp2299
a(g10
S'1Eigcf6Vz1JvJX6VC2kXkJZipdtjyEiAtS'
p2300
I2
tp2301
a(g10
S'153v6qLqcAZyxRwMhf4rEDjUaHjNUBVUsX'
p2302
I2
tp2303
a(g10
S'1LQQ3TPgxCVqFE1dRw2xoXbjLMCRrVK8bM'
p2304
I2
tp2305
a(g10
S'1NiwxBBJQAGzXVmBZCvYktBDUraWQYs4Qa'
p2306
I2
tp2307
a(g10
S'1qFiXwn1ZDMNoEN59DXuvCeESsPSqtRAQ'
p2308
I2
tp2309
a(g10
S'1HwACoY1DknuKuZyxxx2iB2Cq87k7i7ome'
p2310
I2
tp2311
a(g10
S'1LeYJr1rqz9TS9fyvrDRmHicz5JLwWfD4x'
p2312
I2
tp2313
a(g10
S'15HVQNt2oZXSfYtVee4MNteMLJ8aSyhVPX'
p2314
I2
tp2315
a(g10
S'1NUCTKe9EzUVrPn6vyKCZLYtBBdRQg76xo'
p2316
I2
tp2317
a(g10
S'1BK9ReqJHL8rVpowF3q182ZydkAzjwWG8R'
p2318
I2
tp2319
a(g10
S'1Q97H3mUoeVFj84B1L2LhnBxbABDSpoAQX'
p2320
I2
tp2321
a(g10
S'1GawEbiLwAUSZWWY3pCKiqZMkDeDzNnqgi'
p2322
I2
tp2323
a(g10
S'1DrvgTGY2fD8P6GFWfDypDMrmwFMZHLnH6'
p2324
I2
tp2325
a(g10
S'1KxSMxSqXnQDufLVwUznpChyQ36aCZeei8'
p2326
I2
tp2327
a(g10
S'1Juxeu54tswfyWErrNEmLi4v5UJ65JwJsM'
p2328
I2
tp2329
a(g10
S'1AfwwQw657t4Zrg9Qy6NtCHfMiaksRuqqK'
p2330
I2
tp2331
a(g10
S'1N5PNnN4a8gZNb599hAjjZUtatXwyydKWy'
p2332
I2
tp2333
a(g10
S'1Mi4V5DpCbu3oxHLDycCn6QUVRkkaFhsZy'
p2334
I2
tp2335
a(g10
S'12hXsUL98KU573yU8rrByggmGWukZ79wg6'
p2336
I2
tp2337
a(g10
S'1GMAPP5muC1dXNC9RQPDNG5ndr6tEbikmk'
p2338
I2
tp2339
a(g10
S'1J6adE7hUGbpXhnubEfGntPWLdzWLCHdRN'
p2340
I2
tp2341
a(g10
S'1Q8SjwxQWyrYfN2wLyYGYdJyxEKFTG8gGD'
p2342
I2
tp2343
a(g10
S'1LeShsZFJqSZiVmcQKXyarZBU4NPCEP7dK'
p2344
I2
tp2345
a(g10
S'1A7p3WrcRuL8rTQNM4b7QxvX12oe97bb3T'
p2346
I2
tp2347
a(g10
S'16EPwJX6NzP46dnw2UrqcGnbTK7kUCLBpW'
p2348
I2
tp2349
a(g10
S'1JC6f4yo9QTAF3oQghQsDhtTceccHfEiwe'
p2350
I2
tp2351
a(g10
S'1LYobMVTsJ2scx4xY7tJzpcCNgktAY5AeE'
p2352
I2
tp2353
a(g10
S'1MtMXsqEGwcJF18tacfdmiHqJAiqVybP2v'
p2354
I2
tp2355
a(g10
S'1HwACoY1DknuKuZyxxx2iB2Cq87k7i7ome'
p2356
I2
tp2357
a(g10
S'1LbB6nVBjZEsEWnhVpCw8qyAFXSA1SiuAB'
p2358
I2
tp2359
a(g10
S'1EThKgrbJtrCWcGYvNzKfFzaSDeRxV9Cbh'
p2360
I2
tp2361
a(g10
S'17Y6caw9fBVcG6Nse5RCuKgjKNKhLdtuEF'
p2362
I2
tp2363
a(g10
S'1Ph7ynnctRvLxniUSVkyR7nVmiAwZNLGm9'
p2364
I2
tp2365
a(g10
S'1M58xQKbadyf45bGkMFeetja1nFSThTY5i'
p2366
I2
tp2367
a(g10
S'1L7Pq5U95QemnqNsgYwbEcREpV2o8poiS2'
p2368
I2
tp2369
a(g10
S'1ErMgrZR5vScFnWU2EJBwEXNvCLtTKU5ci'
p2370
I2
tp2371
a(g10
S'12F8AGfTUfJzj12jWQPYBztyS1N8oWqgZQ'
p2372
I2
tp2373
a(g10
S'15iDe6oW4WpLsafWS4psNS4kHoeAcgjCQp'
p2374
I2
tp2375
a(g10
S'1MbzNH57k5Nf2xa2dueVt32vChkED1SM5e'
p2376
I2
tp2377
a(g10
S'163eninoRwSW9KX3fDfVgKPcmdEtCHprFH'
p2378
I2
tp2379
a(g10
S'163RDz6wMnXPPJP95rHiNZf8gqZsspt2VL'
p2380
I2
tp2381
a(g10
S'1AQJe1XbXQVWq2TAYYDg7pg4fBYAjnoDwC'
p2382
I2
tp2383
a(g10
S'12mVFtuRV3NceaNRxomMYwHefFmAxRS48C'
p2384
I2
tp2385
a(g10
S'17zYuPkupudZHBzsPrHADsP5MmFAPtM19U'
p2386
I2
tp2387
a(g10
S'1HaVKtC9fhzMnvBdzhriTqL5DudVDeVuAz'
p2388
I2
tp2389
a(g10
S'1ERyoLmmP7rVj4V2Fpfdg6Bx7npt6Mem1B'
p2390
I2
tp2391
a(g10
S'12CPTJ7r3tXpX7qGgVP8QyeeFH9astvrZb'
p2392
I2
tp2393
a(g10
S'1PesiMD1f7wR3X54S3nRJoJdF9EuucqT82'
p2394
I2
tp2395
a(g10
S'19wjnikKsodJRXPNWcnjecqCgDs9hnvsDM'
p2396
I2
tp2397
a(g10
S'1MJeCpYcimpWM6G4Zm8uZURpt5YJWKPWso'
p2398
I2
tp2399
a(g10
S'1EVpzireMJSLhMg3CB8S8HMzJ7Eno4Lkhx'
p2400
I2
tp2401
a(g10
S'1127TqE6SyA7HUFzhTgcrLrasJuqyf9Ydo'
p2402
I2
tp2403
a(g10
S'1DALeeit1mzHrRme5P8ZRmJXSbK1UuyH99'
p2404
I2
tp2405
a(g10
S'1AMumLnKbDWk3AcrX8gRnR4qbBVvNdE6Z'
p2406
I2
tp2407
a(g10
S'1N5c9nrpj96BmXs5bPq8obgYnpJZuSbaVh'
p2408
I2
tp2409
a(g10
S'1K6RQN9DeXBYtHyU4y6tpSXUi48hX7mjws'
p2410
I2
tp2411
a(g10
S'1Cq8hJuhqKe8rQkR4vSfxRQP9jHJuLQbK5'
p2412
I2
tp2413
a(g10
S'14RYHZ2RQZ1EpXcae8Gq2xMKiDoXRNn1bS'
p2414
I2
tp2415
a(g10
S'16eWQ8c9qg1ixYJT516g58iBinst8TsSLt'
p2416
I2
tp2417
a(g10
S'17wnzgK4VwJwqjqYpk25g45qQUETcWQmdr'
p2418
I2
tp2419
a(g10
S'14g65SJyfLx62L3Etm1TNxp53VXRQGfGfG'
p2420
I2
tp2421
a(g10
S'145oZ5LjjkejiUN3J6S9URuYGzUMHnhDDg'
p2422
I2
tp2423
a(g10
S'1Lj9D7zC3bpF7A7SieUv4PcYQxSybf4bK6'
p2424
I2
tp2425
a(g10
S'18XM3QnTsAQaH66bRYjtKzqMfybSTRLWgR'
p2426
I2
tp2427
a(g10
S'1Ha4Wp5CjYaX3DUH5j7oeHTQs9hQpSFCyo'
p2428
I2
tp2429
a(g10
S'18y6z7jEJWHuqyRAXYcywUo91hFnNwhzgG'
p2430
I2
tp2431
a(g10
S'166KtMeW6wAZrTLnarwvBwVctr3VByr4dc'
p2432
I2
tp2433
a(g10
S'1DMA7WmJ2ZtpzBJpRKoHhH6sXainJPS6zk'
p2434
I2
tp2435
a(g10
S'1EMhXVfJGzSEuYjfT19Yy7fRVJN8nQWHZg'
p2436
I2
tp2437
a(g10
S'1YyaP9nwkW8adZE4DQJprjfnFqaNR79zK'
p2438
I2
tp2439
a(g10
S'16431r9Dhr4VGwnBHLQzixknGUcPAFsKft'
p2440
I2
tp2441
a(g10
S'1fqmRXkSQmf8ZmF8AV4p3N6XAeHMQLFQP'
p2442
I2
tp2443
a(g10
S'1EGUJhretXPBdintgZkXobiXeP5ZVfqMLX'
p2444
I2
tp2445
a(g10
S'1BmfYAKrngysqii4pe3H7WonmoEfscrEpN'
p2446
I2
tp2447
a(g10
S'1PUpxuU1BqrxhK3bFDQBfSBYnbv83EGfhc'
p2448
I2
tp2449
a(g10
S'1WjdFL4KcwzhxTHomfPTvnxWHcYdy2UEX'
p2450
I2
tp2451
a(g10
S'1D1fgphnm4PfZp1xfjxkjQaKWYw7G8c654'
p2452
I2
tp2453
a(g10
S'1HrJWX8Lek2DJepVVoTgA6g42jCAERUXvx'
p2454
I2
tp2455
a(g10
S'1BVFqCogaDHZq4dJ4MiMfW5T7TBAEAhghZ'
p2456
I2
tp2457
a(g10
S'17BYmghFYtqDxid2FgpJG9uN92PtCM8Ptt'
p2458
I2
tp2459
a(g10
S'1E9dQ3aL73Dp7rdjAMnBgEkK2E54UneJg2'
p2460
I2
tp2461
a(g10
S'14yim9pran5APdEvXqT3tRej3vHBrd55rn'
p2462
I2
tp2463
a(g10
S'1DpoGyNpW3U6TxA2iWZuUbmDk2sT7T6PGb'
p2464
I2
tp2465
a(g10
S'15MSxvixhss7MKnAH3GTLLQVoC7so9RHCV'
p2466
I2
tp2467
a(g10
S'14PYAtz95dnt3rbUaj6CegVdfx2k7DQ4HR'
p2468
I2
tp2469
a(g10
S'1HbaKDoef6dQ5hyUCNgn7QMAuVPDCb2Ymu'
p2470
I2
tp2471
a(g10
S'13CZMrFYZYQoKfkrbUs6yK2vAWKwCu3TeA'
p2472
I2
tp2473
a(g10
S'1FTj9UW8recvT1m4rPxcrgCRpxRPN3C2PH'
p2474
I2
tp2475
a(g10
S'1Ps9vUU9iXMPoYVTZDN3uTPhQaBdhmJAS6'
p2476
I2
tp2477
a(g10
S'1PFxbuLzSiJbzModE9M5vP2opCuAJ2DBAu'
p2478
I2
tp2479
a(g10
S'1DpXdgRHEyMBbkPP1McResL5HEuYMb7wE3'
p2480
I2
tp2481
a(g10
S'12EbFEsneZs2R9XqsA17ZiAvdHrDGNjyLb'
p2482
I2
tp2483
a(g10
S'1DMxD83Lp3EbkL9SyrnDNMNosGQBFxaVqd'
p2484
I2
tp2485
a(g10
S'1N5NmxdrNnQEPkGuVTLDziVT57mbi9uXxM'
p2486
I2
tp2487
a(g10
S'161Wpw6K3EZoQmiMabWSvtpK86tbbkEsVD'
p2488
I2
tp2489
a(g10
S'14QumSUUUjd5ka52Ek4rVxxXgT3AXi4asJ'
p2490
I2
tp2491
a(g10
S'1HnfkdGuQtVqStFoJ2GforV6uPwuQp7our'
p2492
I2
tp2493
a(g10
S'12rmZcNvJFBxM3M1Qj8e3BjFvxoFwnMn18'
p2494
I2
tp2495
a(g10
S'17xukfKZMw4WuDLfMh8khttpikew4EtAFn'
p2496
I2
tp2497
a(g10
S'19ZzaSKKiXTE7wEBzEV24ZMbEDy8oApv9d'
p2498
I2
tp2499
a(g10
S'1LRKiYduoE8JQF24xgZnU4DLc5ysjfJAg3'
p2500
I2
tp2501
a(g10
S'18VWPBCTx17m5YAzAiBCt1iMkrfBcPZwGp'
p2502
I2
tp2503
a(g10
S'15UiVjws51mamue25QxAkwKsgmS9uAD5uq'
p2504
I2
tp2505
a(g10
S'19ZHEN62uDb39SPoyRw2b5G89yUJvJb2s9'
p2506
I2
tp2507
a(g10
S'1NpPxmisLwxs1SJocRayiafULZCoqkTzUt'
p2508
I2
tp2509
a(g10
S'13ykKcSK7o31x4ANi34xeWagn8crXNc9Tn'
p2510
I2
tp2511
a(g10
S'14fuNjw2LtLDbEtCK9CyAcJN2NoiNQc1JR'
p2512
I2
tp2513
a(g10
S'1DSwX96tmxxECneVcB4NLit2NrqxzNwWwc'
p2514
I2
tp2515
a(g10
S'1MgKnbUYYB5HuTnqMrcVYtor6Dc74AFgLu'
p2516
I2
tp2517
a(g10
S'1NdoYCfcY34igw7bJCSuenTQqoBWV4npr3'
p2518
I2
tp2519
a(g10
S'1EGUJhretXPBdintgZkXobiXeP5ZVfqMLX'
p2520
I2
tp2521
a(g10
S'1EQNUFpRDrnRGys9uExZnWC5oesqSDQkfR'
p2522
I2
tp2523
a(g10
S'14fGz6ZzeuoMvnH5c8HBA4K6a9nQp8dgYi'
p2524
I2
tp2525
a(g10
S'1ehQNkQruxNSUzCKFRdEQwS3tuDL43TqV'
p2526
I2
tp2527
a(g10
S'1DQhsmAH2T4SL82HNvwURk36NikW8FREST'
p2528
I2
tp2529
a(g10
S'1DqFKKYGNyZPmfxqYhowH8NKRZ23i9dhRB'
p2530
I2
tp2531
a(g10
S'1D2KiJeaDRezr7hqhgaNpvfaVn3XaQ1JeT'
p2532
I2
tp2533
a(g10
S'13V25DtzVvEVW4HDic9y7H7SK59ZhPyj6u'
p2534
I2
tp2535
a(g10
S'1Hx3MTHRxtirha9cSp4jTZ3FT9Hp87Tdps'
p2536
I2
tp2537
a(g10
S'17uMQZgZznc3dmBw1mG4TKgZYtPWTAEL9Q'
p2538
I2
tp2539
a(g10
S'1KXEKx38UDashjwdJQRxqtCwP416ufex6q'
p2540
I2
tp2541
a(g10
S'1DYvP1DZxrYDEMzB9SxDV6scXZFAKFLZPv'
p2542
I2
tp2543
a(g10
S'16KvkcAaMdzZzKfkJevyPihQquKvbcR9UR'
p2544
I2
tp2545
a(g10
S'1HR3KPyK2VV57TFamDBumX3BiVB8pwk24U'
p2546
I2
tp2547
a(g10
S'1BxSKkpVzpm8yU4vrFay7C5ZVfJyMzB9aR'
p2548
I2
tp2549
a(g10
S'1MWk7pkhtPGcJ8hxZRN7WpzK4LeV93UqRW'
p2550
I2
tp2551
a(g10
S'1rEUKi82cdjKTYweJKv92qBLJZRDLcVbQ'
p2552
I2
tp2553
a(g10
S'1QELtkUgMShXTq1wsfQDWRUcyYRXTgDzfG'
p2554
I2
tp2555
a(g10
S'152QqeeRY2KVhSnu6UMKX9qzQqQdMsP3iU'
p2556
I2
tp2557
a(g10
S'1FhRUJvgdWyRcR69WiiMmBVDYZVNYHZJyx'
p2558
I2
tp2559
a(g10
S'14nZiKDKqvSK8pHuvDVLdiPC4bwNiZMdRo'
p2560
I2
tp2561
a(g10
S'13jRn9EJsBWbevMwTfNR6Yhk13mHsPzC1s'
p2562
I2
tp2563
a(g10
S'1Kak2jXEsCWYoLjRwFWyLMsHehRyeg7Usb'
p2564
I2
tp2565
a(g10
S'1FNULkgRdyw5xGUcZYsGwUeyMgYwYLVrxP'
p2566
I2
tp2567
a(g10
S'1DxDfiWLRDbyGXDfXhCanLHVvF4veB1U7n'
p2568
I2
tp2569
a(g10
S'1CMUmYTwRJKtxVibhCh9XWAXmJWCaCPgcm'
p2570
I2
tp2571
a(g10
S'1NF95hxm9jXG9qtkARnoU5PGZDw2qJppgP'
p2572
I2
tp2573
a(g10
S'1GcAgGjLcHejXeS6c7hxCQGEYEGqPCgxuB'
p2574
I2
tp2575
a(g10
S'1NCkBEpFd1Qe14sGCLuiu4eZtkH9yqdFgZ'
p2576
I2
tp2577
a(g10
S'1DULEaDQ8KEmDjHsBfAcfSJVFqvk9sV46W'
p2578
I2
tp2579
a(g10
S'1D3r8sorew83UdYJUWs9i6xCeXsTLScHNj'
p2580
I2
tp2581
a(g10
S'1Az8GXguTcgnH3XHeJB8wwZog2cCd14K3H'
p2582
I2
tp2583
a(g10
S'18VqvLF3FMc6vfpmuiox4gBbaWwGgE61wA'
p2584
I2
tp2585
a(g10
S'1NCkBEpFd1Qe14sGCLuiu4eZtkH9yqdFgZ'
p2586
I2
tp2587
a(g10
S'14VYL1wL7iNvmz129KQNFA211yriJaME2y'
p2588
I2
tp2589
a(g10
S'15cdEhqCp3Tr3vK3GZgeNJ8nUjSw44ZQWz'
p2590
I2
tp2591
a(g10
S'1BhRKycFzEtcJ3fW7Jkg14RDmjsW2o4oy'
p2592
I2
tp2593
a(g10
S'1NSsHUYiU7AgFsHzqPfs2PB6fsHggCBK9a'
p2594
I2
tp2595
a(g10
S'1MMjtfdf2JBWH11pKDPW4paQeQTekUGmxJ'
p2596
I2
tp2597
a(g10
S'19FyQzEhTU6bLQVzWyZex5KhG67ynPDbLa'
p2598
I2
tp2599
a(g10
S'14uubQUkywBMDtRSLnwTZZ85UGjRURkdro'
p2600
I2
tp2601
a(g10
S'1E2gGb8vNUoTRnVHBR4YXk56GUKi33wboS'
p2602
I2
tp2603
a(g10
S'14gCYLkfskKdnFVeLhqoKea3Njs4ia3mwb'
p2604
I2
tp2605
a(g10
S'19ZHEN62uDb39SPoyRw2b5G89yUJvJb2s9'
p2606
I2
tp2607
a(g10
S'125KFFsiZE4StwsZ7NEysKze8JNHtg5az8'
p2608
I2
tp2609
a(g10
S'1LaqWH6ZBcCZcpRon19PJtGj4vaVo6PjbR'
p2610
I2
tp2611
a(g10
S'13oFuC5w1xThgqSzheyNkvbgwPihXJUWHy'
p2612
I2
tp2613
a(g10
S'1CgXyEVnvbp7szi5aTDhVBcWaVbDm6eiYi'
p2614
I2
tp2615
a(g10
S'1HuV5vHJ1ZxErZByW72ffw1GrJE4ee4ocB'
p2616
I2
tp2617
a(g10
S'1NrwVNk2rP87BjHDrf7w4WJunYw157Q62D'
p2618
I2
tp2619
a(g10
S'1Dr57Kd6CJXakSm8SjdoozUJ5qa6Jt4nnJ'
p2620
I2
tp2621
a(g10
S'14tTde2DhN3X4ZhrfbnJX3W9ifnFQjyAk2'
p2622
I2
tp2623
a(g10
S'1J3dBu3vc5ygFVaAYD75T6JkuExHtVrhcR'
p2624
I2
tp2625
a(g10
S'1JYtD3mD7jzqiAN4HsweiuhLWkYQntGP84'
p2626
I2
tp2627
a(g10
S'13MAt7WdUYoEC7REkU8FNUiyDCipW3JeXd'
p2628
I2
tp2629
a(g10
S'1FAJ3wQepxpYPvdTzj2rdsoXgwoy7T6YAh'
p2630
I2
tp2631
a(g10
S'1DgWCo7AXzyGKf5KEjJu7bGVpiFmnFncmG'
p2632
I2
tp2633
a(g10
S'1KJe6LwAWfQZcxRoCqqwRs2QLMb7SyXiYx'
p2634
I2
tp2635
a(g10
S'17TJPn71dSPBhXZ6CsDUZ18666A4jaCC8N'
p2636
I2
tp2637
a(g10
S'113uekRdhuQKaUaL5Z2XW4L4Zoq158TRhG'
p2638
I2
tp2639
a(g10
S'1CDvPVVo5g83ZSTPTZ2BoqnXNYECAbVNoF'
p2640
I2
tp2641
a(g10
S'1JYwoMRUhMDrT2Kj1vz7i2RGCsUbPayVMD'
p2642
I2
tp2643
a(g10
S'1CLSuaKco1bCz5SuuFCHT5MsPEM9it31Fg'
p2644
I2
tp2645
a(g10
S'1GVwDJLLUHSFrUDfTDrq3VfiaSJyeYP6fr'
p2646
I2
tp2647
a(g10
S'13CLbkbVZ4nGLcWtmHNCH8ra9hUzHYnLkH'
p2648
I2
tp2649
a(g10
S'1jWYTu7U5m5R7FSsAveo8JQYrDaaufHFv'
p2650
I2
tp2651
a(g10
S'1JP1BahEa9RtEWRJUdgh4Ps52qGYKYLmsY'
p2652
I2
tp2653
a(g10
S'1NYaVYxUEDxtPEXQoj9Ka5Hz6mkwtVDyaL'
p2654
I2
tp2655
a(g10
S'1CyxAyuK3U8yXtd8MFyqmJi5tj3Lyk69gB'
p2656
I2
tp2657
a(g10
S'1FshPjS8xM88JR88xLs23NcnUXkejaxBeR'
p2658
I2
tp2659
a(g10
S'1KQSLfT4yuPWf7wAFnWzCbs27mtmZVy9mZ'
p2660
I2
tp2661
a(g10
S'17a9iag2QstvwxkkNnkUkqSwHLGKa34WHs'
p2662
I2
tp2663
a(g10
S'186rohEsd9qw8PpUdXtj8iSjXGDyWcW4Lh'
p2664
I2
tp2665
a(g10
S'1KgAYKj3UTEiST7m6dAsW9ky2gHHc7tzp8'
p2666
I2
tp2667
a(g10
S'1Azce42dbgU6xrG1uxjmkV4ncpCZ41z26U'
p2668
I2
tp2669
a(g10
S'1Co3PYkYCM4KAzyPu3z9ZEpQyfU3u3Uk51'
p2670
I2
tp2671
a(g10
S'1JenBD6WsDzH2Ejbhd6UGTZf6QFyLoojMz'
p2672
I2
tp2673
a(g10
S'1KgXsTnywux2eBYfutpVvj9MCV3szyUbkU'
p2674
I2
tp2675
a(g10
S'1NdcSMcSDiQtuLhhyh6DPVQqJrD7ZSe6oy'
p2676
I2
tp2677
a(g10
S'14EQXanT8krVSoFpnW9kWQYuJryjhPJGY9'
p2678
I2
tp2679
a(g10
S'1LdK7K9stumjGcyq4KjVhQCzqbB5VNcpPs'
p2680
I2
tp2681
a(g10
S'13EvfK6qH528FK1mimZkiEKNZudyCGoKr3'
p2682
I2
tp2683
a(g10
S'1HMiropWSpS6VPm16epCdeVqayCsNyVsSj'
p2684
I2
tp2685
a(g10
S'15GBGLDYoc61cg8JtZoq7JiuEXYziuUwyg'
p2686
I2
tp2687
a(g10
S'12T43rPccWCsViqABWLEhg14VyzTg6igL9'
p2688
I2
tp2689
a(g10
S'1JfHeLiXzfVQNZMctPgMGwzFzR453qjk84'
p2690
I2
tp2691
a(g10
S'1C6YvTeL7qUrQCirRFVAtVcoXSX7erq7FM'
p2692
I2
tp2693
a(g10
S'1Hqsz31EKYSqaShE4dcchwRFZ1ePMHoyV1'
p2694
I2
tp2695
a(g10
S'1NBXLiyYHXwCFWWcaXQ6SB6AHmMPx3Esqy'
p2696
I2
tp2697
a(g10
S'1CKbRHZoFzxo8FXn6d5vnXFbbesh7vEQPR'
p2698
I2
tp2699
a(g10
S'1Kva7PgxrSENrckUDCN77a33kCHCqPwsBK'
p2700
I2
tp2701
a(g10
S'1ZueVVZuJ2PuC1ny2TWakqnyV4G97SA3f'
p2702
I2
tp2703
a(g10
S'175H1eckKtnNkj4UFFj7vadV2hLAp2nPBL'
p2704
I2
tp2705
a(g10
S'1CpQX45euowjqq918kYteiYoh4jaUZhfNJ'
p2706
I2
tp2707
a(g10
S'1E7TUnboiY6jvZYDwLL8mFZGyN971oK5ke'
p2708
I2
tp2709
a(g10
S'1KG3QWdiBvF7tyWPnTVxLyAyYbTCZHQzAF'
p2710
I2
tp2711
a(g10
S'1EdNyAoshFnKMqCnfuH9Gjy66yGQN7cAej'
p2712
I2
tp2713
a(g10
S'1FWCzDrpTcPTTjQEg4x4ue6rWTcV1DGcnv'
p2714
I2
tp2715
a(g10
S'1NgjPLE67T2fYoDtrWEEBXdFgqzQh211hP'
p2716
I2
tp2717
a(g10
S'148TuQGd5xz95LgtqQ6h9R724p5hzmFQ2d'
p2718
I2
tp2719
a(g10
S'1GZU8DRXzfZN5FVkrhmgZm7wdH7Y5cH4Jg'
p2720
I2
tp2721
a(g10
S'18KLZ7TTT3LUktuPSvhoAEEpDyiUJYzG8h'
p2722
I2
tp2723
a(g10
S'13NVknqnhLdpktg9m9NfGL8ppV78E37T4v'
p2724
I2
tp2725
a(g10
S'125rrMT5rHK5dAS6giNqQnStXN9DRREkMB'
p2726
I2
tp2727
a(g10
S'1MqHWTiH7pzsZLGoUEAziTxoKGcXtaW89o'
p2728
I2
tp2729
a(g10
S'1HyQ2TH1Kg6ovafY3oPfKoDsJprWNcvhXu'
p2730
I2
tp2731
a(g10
S'1DRUkadQDVk326vvSM1cVLBWuTGQo6WTnk'
p2732
I2
tp2733
a(g10
S'13ojQM55XP9H1tzjJQaM18EXzoABWTnESv'
p2734
I2
tp2735
a(g10
S'19oZf1xpuEFKRsrcZQeSDKkFvdXj68mauH'
p2736
I2
tp2737
a(g10
S'1Ng4uX1Zh1U4kx2w99xKRwoUsn2iLX1yaV'
p2738
I2
tp2739
a(g10
S'1Hm5Sskomm6RQKrSW2v2XcDfWhx6eXqRxx'
p2740
I2
tp2741
a(g10
S'17cZgyQ8BNNgjQoBsgrkU1EQFn9KhDBrrs'
p2742
I2
tp2743
a(g10
S'1Bo5W3ZMA3F5J3XwndYqCmrP84wxGG9pfa'
p2744
I2
tp2745
a(g10
S'13NVknqnhLdpktg9m9NfGL8ppV78E37T4v'
p2746
I2
tp2747
a(g10
S'1F5SKGtYiEgJVUrSeFjF9yDU8DPVBHx15g'
p2748
I2
tp2749
a(g10
S'1PSr2hLhWNBNHzgdNZZXJRs87aD2Wcq6d4'
p2750
I2
tp2751
a(g10
S'1LzPfESeLaABwLPajKd2JCBPAiNYmn9RgH'
p2752
I2
tp2753
a(g10
S'19WtjvCSRCkGtyhFZ4CJjLGvTiTSc5xKsv'
p2754
I2
tp2755
a(g10
S'1GiitW22oSdQdxEdWaUCCCfL9c4FrnNGw9'
p2756
I2
tp2757
a(g10
S'12YkFvaBsteQ7NJWPy5S1RHW9cf8ZUBNHh'
p2758
I2
tp2759
a(g10
S'1L9A1SJ6M79BJH7fC4ksZuGE2e8Tgdd7YF'
p2760
I2
tp2761
a(g10
S'1E6LFvvxSukRQPwhTRMxtjEXmPDGopGzzw'
p2762
I2
tp2763
a(g10
S'1LhcFFSavTUWLa4rZR1SN4xAtMN8eciKY1'
p2764
I2
tp2765
a(g10
S'1MTZitzujtD6kUoXrnS1F1kKkhK9DZ6emC'
p2766
I2
tp2767
a(g10
S'171wLCsPtsucubTdvMnRhiwQxQsxNTpPYc'
p2768
I2
tp2769
a(g10
S'15pHnHcz1EBf86gcbTN3FEhG43thrNBoDy'
p2770
I2
tp2771
a(g10
S'1KWUXwNHNGqGcQHK2mPsfYPqDjf48eSRpf'
p2772
I2
tp2773
a(g10
S'1PZtGAYt78yL5fgrF8WYGX715J7REG7s4J'
p2774
I2
tp2775
a(g10
S'1MLAFS3Arxrtq8CyXaKPN418oYbuRaaoxS'
p2776
I2
tp2777
a(g10
S'1EG9VxQoUzAuMxn4NHz8NYQzRcAPg6Lz9z'
p2778
I2
tp2779
a(g10
S'15S1V1ShktxnqgVKrRcRq9KmuXPJNQhtKT'
p2780
I2
tp2781
a(g10
S'1BrjKZjNtpdkrxdJeeEsEzhL6YpCqfBdpu'
p2782
I2
tp2783
a(g10
S'1PCarkZkJgTZn7puqbfawWXaJuNnwYs4q7'
p2784
I2
tp2785
a(g10
S'1AdSS1QEVbcDU9cUrm3RVUPL897KjK6bgH'
p2786
I2
tp2787
a(g10
S'1YHaw3zaCNJf9d2jWX5JSUW2YWodJ1Sta'
p2788
I2
tp2789
a(g10
S'1Kbq5hjCbR5fWcnEJ7K3MmD2MAAjfqbx83'
p2790
I2
tp2791
a(g10
S'1FH6pQgqQJuK6zZokdxpZtakJZpiumgTuD'
p2792
I2
tp2793
a(g10
S'1BrLpV7jNptK51jscJX6U9WzaamyKnng3o'
p2794
I2
tp2795
a(g10
S'18VPKL82GS1tkxoMkHHNmf3BJYDHfd9mzB'
p2796
I2
tp2797
a(g10
S'1KtnkjBY5ypv3DioacPd2f9baU47SD23qB'
p2798
I2
tp2799
a(g10
S'1AU3feo5zDHbWcfKha1sesa1JPrroSujbu'
p2800
I2
tp2801
a(g10
S'124yV49mwc1cz3Rjw95vsZGxjXA6yMxggK'
p2802
I2
tp2803
a(g10
S'1P4WPLG6jgPorGfbfXp4FFYVFAWSr3EoZ5'
p2804
I2
tp2805
a(g10
S'1PpMLcdNjKUZXa7KNiXrCcXD3d1Kz2SgDs'
p2806
I2
tp2807
a(g10
S'1GrpA8iVbnv4eW7eFsuc9W7H2WjSaf68Nx'
p2808
I2
tp2809
a(g10
S'1NgT9Sj5CK8F76PWQKfK2UvCUG3xk8sh4P'
p2810
I2
tp2811
a(g10
S'1HfYcuu3P5cvhBJeiaKJ6oFQhdFm1ch237'
p2812
I2
tp2813
a(g10
S'1N5WpbqrHfrnikDrTZ7kKcWCzmfAjmocQP'
p2814
I2
tp2815
a(g10
S'1MMrzZ9wBZLtmQC3MhD2ogPAh8yPKaiJuw'
p2816
I2
tp2817
a(g10
S'1AgdCpcKWXNJeW5114u3SHmYz95HHbxh7H'
p2818
I2
tp2819
a(g10
S'1EAjzAzc27DhQmpehhjoF56sq4VEhDs9dn'
p2820
I2
tp2821
a(g10
S'1DsQmVqYXgYNSr3b33BmZJ7EkQdS8P97zc'
p2822
I2
tp2823
a(g10
S'1J4n4AkHMP3goXo5YscryrvEgSiwWTRrU2'
p2824
I2
tp2825
a(g10
S'1Fs6eQ8JV5oAthc4htivoPChHrAknBNE7u'
p2826
I2
tp2827
a(g10
S'15CKKcUen4EZp8Qn2JL35DSwfwSqEL8Tt9'
p2828
I2
tp2829
a(g10
S'1J4n4AkHMP3goXo5YscryrvEgSiwWTRrU2'
p2830
I2
tp2831
a(g10
S'1JX5g37EJjTfvRUXKvZj7Hbo6CJZxgLLBd'
p2832
I2
tp2833
a(g10
S'1MX93Fsc9qjkYBYxokgs7Kqa3rV8NAfmnu'
p2834
I2
tp2835
a(g10
S'14i4Y9bg7zioHB6DEMRWk7RtLzCMhsT5Ed'
p2836
I2
tp2837
a(g10
S'15j5BF7dagWhNhGFPhDv8K4Q87taKXBx8D'
p2838
I2
tp2839
a(g10
S'1F6TdmBT3yvp3pmqza6LyxfH6xADjJrmaF'
p2840
I2
tp2841
a(g10
S'16c2q7MYb7mgNg4znNfU4gaJS9Xgr3fNNo'
p2842
I2
tp2843
a(g10
S'1PqzuoKY6fWgqM63ke4ituCuoitB3sVJaz'
p2844
I2
tp2845
a(g10
S'1GocrBksb3F1uUPYdSfmk65RCjqexTupf3'
p2846
I2
tp2847
a(g10
S'1NMi51pkL6xMkw2NVdMQpd5ANSqdfqERWF'
p2848
I2
tp2849
a(g10
S'1JPpggwgigdSyNFkzmxnYXxeBSU7h2sE2M'
p2850
I2
tp2851
a(g10
S'1FiLnak9xAjp2WBfwRzWwwUC5x9g527kpb'
p2852
I2
tp2853
a(g10
S'14zBFvdzUQ6JyPm1fEQwbeQ8R912H5s2SJ'
p2854
I2
tp2855
a(g10
S'1G38r4ya8fd1hSdWMYHbKjturRmbNL139s'
p2856
I2
tp2857
a(g10
S'1GrQbk7wBr4V6ekrW6Ce4GhELMwFNi4YjE'
p2858
I2
tp2859
a(g10
S'1NB2QLCuABBMeRnH9j3q9RAwxjqSnGBpwU'
p2860
I2
tp2861
a(g10
S'1NB2QLCuABBMeRnH9j3q9RAwxjqSnGBpwU'
p2862
I2
tp2863
a(g10
S'1NB2QLCuABBMeRnH9j3q9RAwxjqSnGBpwU'
p2864
I2
tp2865
a(g10
S'1NB2QLCuABBMeRnH9j3q9RAwxjqSnGBpwU'
p2866
I2
tp2867
a(g10
S'1PNmV4ReCKyAu7to2J1yHsy5V3HmC98Kv6'
p2868
I2
tp2869
a(g10
S'1Ez925BmM2HBPgtTfRmGW2mckgAEBnr8Tz'
p2870
I2
tp2871
a(g10
S'1NtYiR9xDmFNEAakzAW8gZkc3KefnhFcJ4'
p2872
I2
tp2873
a(g10
S'1EGyA1fsdLaqAe76HpFJfmM67j2mx2VLKw'
p2874
I2
tp2875
a(g10
S'1NB2QLCuABBMeRnH9j3q9RAwxjqSnGBpwU'
p2876
I2
tp2877
a(g10
S'1NB2QLCuABBMeRnH9j3q9RAwxjqSnGBpwU'
p2878
I2
tp2879
a(g10
S'17TZVzADiXoCchN4yTs2KRcwfBMVJ8qcdw'
p2880
I2
tp2881
a(g10
S'1KF6bSqDLXCZu7mk5sYrUpzEwDgfS4jVme'
p2882
I2
tp2883
a(g10
S'18JHBBxRDzejT341MWk6A2vu9k7uJQj1jm'
p2884
I2
tp2885
a(g10
S'16FSQwWijruJhgY74Qrt6T1tBMeF93tiLb'
p2886
I2
tp2887
a(g10
S'17zcEBx2t5jJDf9W6pDs8tkNjxmoGVdLNC'
p2888
I2
tp2889
a(g10
S'15WVvsPuk77N57jzo2LtzYpj7oAEEmJGn9'
p2890
I2
tp2891
a(g10
S'1BukfMxX8Z87bJCva9Gmxhw4PpCSMXfAAj'
p2892
I2
tp2893
a(g10
S'1PCMofXEdMX7YfumkkFqhki7A9PW6VhMM9'
p2894
I2
tp2895
a(g10
S'15wQnemZG5DxntKW2DAg1hNjHD8MnY1tXh'
p2896
I2
tp2897
a(g10
S'1NB2QLCuABBMeRnH9j3q9RAwxjqSnGBpwU'
p2898
I2
tp2899
a(g10
S'1NB2QLCuABBMeRnH9j3q9RAwxjqSnGBpwU'
p2900
I2
tp2901
a(g10
S'1NB2QLCuABBMeRnH9j3q9RAwxjqSnGBpwU'
p2902
I2
tp2903
a(g10
S'1NB2QLCuABBMeRnH9j3q9RAwxjqSnGBpwU'
p2904
I2
tp2905
a(g10
S'1NB2QLCuABBMeRnH9j3q9RAwxjqSnGBpwU'
p2906
I2
tp2907
a(g10
S'1NB2QLCuABBMeRnH9j3q9RAwxjqSnGBpwU'
p2908
I2
tp2909
a(g10
S'1NB2QLCuABBMeRnH9j3q9RAwxjqSnGBpwU'
p2910
I2
tp2911
a(g10
S'1NB2QLCuABBMeRnH9j3q9RAwxjqSnGBpwU'
p2912
I2
tp2913
a(g10
S'1NB2QLCuABBMeRnH9j3q9RAwxjqSnGBpwU'
p2914
I2
tp2915
a(g14
S'1bAYtdPvnAy5v2Mpra1sW2Lfqj5VNzSLG'
p2916
I2
tp2917
a(g14
S'1DgZMEimm2jvn4cSJwDH9AaYUojYCdn77R'
p2918
I2
tp2919
a(g14
S'1JPRf8eXKSmKnwuF3iJmGjrSSJVkpx2W7V'
p2920
I2
tp2921
a(g14
S'1FU3kEuVWfG37n5o7qXbpZMzqnkdp1ocVC'
p2922
I2
tp2923
a(g14
S'1BpMEkj14jA1DDWFpVbTy3ARBHduifuTho'
p2924
I2
tp2925
a(g14
S'1MNWc2cxfDfXVkk5gq9BQReNyj91SzoTRa'
p2926
I2
tp2927
a(g14
S'17G8X2SUux4Fcufag7Z8ETRTrgnyeFmRg1'
p2928
I2
tp2929
a(g14
S'1FkbE7yKUJGxBzAvbkjHi9eywHNfcUrBHq'
p2930
I2
tp2931
a(g14
S'1KU84ibKyXCqjMyE7LwtLbTo2pMLxm2sks'
p2932
I2
tp2933
a(g14
S'1HxvthciBCWiSizGAM7C1trn3Ph3S77XC4'
p2934
I2
tp2935
a(g14
S'16ZwGswqH7qvhoNdLZPraqGSmYuNTprpzL'
p2936
I2
tp2937
a(g14
S'184JDdBQFu95qPfjE5dvz1RDSimuAAfbts'
p2938
I2
tp2939
a(g14
S'17TZVzADiXoCchN4yTs2KRcwfBMVJ8qcdw'
p2940
I2
tp2941
a(g14
S'1KF6bSqDLXCZu7mk5sYrUpzEwDgfS4jVme'
p2942
I2
tp2943
a(g14
S'16FSQwWijruJhgY74Qrt6T1tBMeF93tiLb'
p2944
I2
tp2945
a(g14
S'17zcEBx2t5jJDf9W6pDs8tkNjxmoGVdLNC'
p2946
I2
tp2947
a(g14
S'15xUJkLEXf8CUdCZk9rNXJkFeBmbiRKfYK'
p2948
I2
tp2949
a(g14
S'1B8zAq1YfWfeaMc3WcMYgrGfsjokBKwhn'
p2950
I2
tp2951
a(g14
S'1JBvX11cVqas6av4bsqmyXoizeaSDQzPSi'
p2952
I2
tp2953
a(g14
S'1Gjew9sbFZV8BZe6QJ8ai6qam8oHroCQAx'
p2954
I2
tp2955
a(g14
S'12R717eCGnuvzWf8AJ3XtxjpVmsz9T2jAm'
p2956
I2
tp2957
a(g14
S'1QFhQVvZijGgr1nY68xUaSxpvPdH56eXWm'
p2958
I2
tp2959
a(g14
S'148ePRQcrQoWxZvgb74ieGGQNQrHQpiBqJ'
p2960
I2
tp2961
a(g14
S'1K8Xvm7yiydyfkH3vouHa2qtV6mbS8EDjs'
p2962
I2
tp2963
a(g14
S'1HUdZRW4XBF6fa2X9g7PC8PSq8ruRTkKzN'
p2964
I2
tp2965
a(g14
S'12KU3WCGABL7YL1JWPjvUM8T6NckDugVFJ'
p2966
I2
tp2967
a(g14
S'1Q7ZzqVtQKQ8vUvHfoNBRCoKeQD3df96a6'
p2968
I2
tp2969
a(g14
S'12J6KqYytAjh2AujawVggGtKM64S1canwg'
p2970
I2
tp2971
a(g14
S'13V4EeWofMLH8Ab3ci4EASeQmdYq43BJNw'
p2972
I2
tp2973
a(g14
S'13MvSTxk1yFHSqa81cRUDXnVhTLD571kQW'
p2974
I2
tp2975
a(g14
S'15BrzqiVfvMYEMcn99pgzbdpim7waBEjoF'
p2976
I2
tp2977
a(g14
S'1CtKN3WkF62dsuzN14d2Cx6b4G88gPpDv1'
p2978
I2
tp2979
a(g14
S'1B4DYhokkgzrF5n1G2yAZ7FpzKCiTYLpa6'
p2980
I2
tp2981
a(g14
S'12oja9HSt2UsWufZSbwZjcL46QJcZjZny8'
p2982
I2
tp2983
a(g14
S'1Mg6N8z2Go9c6KEqSYzS5i93iEL5NBefty'
p2984
I2
tp2985
a(g14
S'1HuwLC9Jz8ambTVgz8G2x32YR4QKrZhkkF'
p2986
I2
tp2987
a(g14
S'1LT9PiB56S27Eq7W8LJ5h272EtYda8hCHe'
p2988
I2
tp2989
a(g14
S'1CszhFCkB76Q4z7VnbLVxcQhf9LKqAyvgZ'
p2990
I2
tp2991
a(g14
S'173LwsNmjaPwD65qkaBAqHonzKm4KZhzzz'
p2992
I2
tp2993
a(g14
S'1PjPrJhfYmoifEWTWdHfUuN6wca6m3We2M'
p2994
I2
tp2995
a(g14
S'1DqcJKBZxMMEXYMvx1zySWsm7nGpEKK2cY'
p2996
I2
tp2997
a(g14
S'191jRNUDSHsqw4k3xRFpz1v1nV54BSuReV'
p2998
I2
tp2999
a(g14
S'1H2jmAjMTcdDcF8Fv2vKrFowr1sUQbteyw'
p3000
I2
tp3001
a(g14
S'16PPtcqPw8hvcMWKc1f68uiRnDyUeFmE3Y'
p3002
I2
tp3003
a(g14
S'12BwkmHrVKGdzmEYGpvqSy6xeYGqWDiF6j'
p3004
I2
tp3005
a(g14
S'1PHHab267nbhVWCNTTQEq7txpmm7EtusSW'
p3006
I2
tp3007
a(g14
S'16PPtcqPw8hvcMWKc1f68uiRnDyUeFmE3Y'
p3008
I2
tp3009
a(g14
S'1Nbu7ohftZTnEX9J9e98e7nFxCp5qTmrVR'
p3010
I2
tp3011
a(g14
S'1UFGr68shhkB47SsdkK1CRqjTYXZet3Pr'
p3012
I2
tp3013
a(g14
S'1DyW9SSFA1h1CRmoiTmwgYAFbuBdPHjaPy'
p3014
I2
tp3015
a(g14
S'191omBquhYbnBkrr3XGDkcdwBrkeNjXu1'
p3016
I2
tp3017
a(g14
S'12tjPuZSLchdpkvFRqZP41BU4obDkCXFEW'
p3018
I2
tp3019
a(g14
S'1KasNvuWRaXDxVi371uYUnsfBJc1wNL6Uk'
p3020
I2
tp3021
a(g14
S'1AbEGYDujnGeS1abwganmkxxmtVqHPYgwn'
p3022
I2
tp3023
a(g14
S'18ZmXixq8NVozPcSrNm32GyMNnDHzTzR5k'
p3024
I2
tp3025
a(g14
S'13autehE2RE72ojMNf6bTi7CAzXPPFUUSM'
p3026
I2
tp3027
a(g14
S'13KPWrqkDKLJiowjjNs5SbHVq5pyMenbsc'
p3028
I2
tp3029
a(g14
S'1NUif2Uh13qL7XzXbJB78PJq5YDFvkMfAP'
p3030
I2
tp3031
a(g14
S'13aXZqLsnGB4sRZJxZSi1ya9ij22Rm4aPG'
p3032
I2
tp3033
a(g14
S'17G9UpbmXCDPBC1PDFRHJaeFzRrwT7w94A'
p3034
I2
tp3035
a(g14
S'1DDrjrHLjk6hkcu61Gk1dEGRScnDiTvh5j'
p3036
I2
tp3037
a(g14
S'1LPacJDQQSeYo27mbHxtFHQbvid7VPCraH'
p3038
I2
tp3039
a(g14
S'18HHHUUxGcyyGgmHswCDRUC2rL1UPLK8zw'
p3040
I2
tp3041
a(g14
S'152mtsFz7RyAWFb7wTf919aEos29APqLtC'
p3042
I2
tp3043
a(g14
S'1Jx1fddmDRmL66uHxqScV7Zdfc3an6FnFx'
p3044
I2
tp3045
a(g14
S'18pJF3t3mNb19FgaAwV3L6uEpHXhNznu1v'
p3046
I2
tp3047
a(g14
S'1GVjfd2HCrDUF99wwjdQwvrS7PBpoAuKvE'
p3048
I2
tp3049
a(g14
S'1Pcvn4wBEpSXPbnv5G5qt3D4rTjzKavGQc'
p3050
I2
tp3051
a(g14
S'1FnTFGdETqwZ5scL2Y74MyQYr1H17a46BX'
p3052
I2
tp3053
a(g14
S'14rzj2jDekXkykqsjT4AZ9Jq2NBaSi4Zfe'
p3054
I2
tp3055
a(g14
S'1LYG6dTSTQMHABLiu1zxWhJtB9odeDW3x1'
p3056
I2
tp3057
a(g14
S'12D8bXNbSLDoPCb6gLW3oLwJUAeVcp2uhH'
p3058
I2
tp3059
a(g14
S'15euw6tQXkVySzWMcygdiBdF2dM2X4Bdvz'
p3060
I2
tp3061
a(g14
S'1Lr5RYFrJY2dhaC5yjVnsuZPdge5gByQi8'
p3062
I2
tp3063
a(g14
S'1BVcUDmZN96cUD1rRnpuiKkGmYkZdbVFPq'
p3064
I2
tp3065
a(g14
S'14hLzjAXoJRFMqtGTs9AXpXGWx3cj7SMFo'
p3066
I2
tp3067
a(g14
S'1BVCvfw2CwuMeYg8fQFzYpvo6tejaooTBT'
p3068
I2
tp3069
a(g14
S'1CGnk8GxSmSPCQPfmqz8NwZ8s2AZnajVUi'
p3070
I2
tp3071
a(g14
S'189pMkp2NUQKAHo7LtTCfTQPyWh2XTJT6L'
p3072
I2
tp3073
a(g14
S'15ACNiFFci7yuaj632usq2eBEXkvUDpqWF'
p3074
I2
tp3075
a(g14
S'1Nfq6PriBVfdmWAXEdK3Qndi3gji5TiDnA'
p3076
I2
tp3077
a(g14
S'1Gghydh2X7pBSryVfGztS8f8ZPmiigcKEw'
p3078
I2
tp3079
a(g14
S'1EuVM3GKN6V6nNH8u7FZg5EijWpbNF21TE'
p3080
I2
tp3081
a(g14
S'1B93KULsyDKA7grBj1eucRirZepj4AbR9e'
p3082
I2
tp3083
a(g14
S'1vcZEpkraemonMW7bA96Bj4oq91XxJvfr'
p3084
I2
tp3085
a(g14
S'1PA2ivHDwvcgnNy6BrbfAsBVF7tC1Tc2he'
p3086
I2
tp3087
a(g14
S'1H9K7xKcvwKSzSK81Qs3ZiG1Cofk7dtkjX'
p3088
I2
tp3089
a(g14
S'19oRTCLhX2coT8UkeRN7UwtVb7pfEfxJs9'
p3090
I2
tp3091
a(g14
S'1Ea2NCsogSPBwL4FDx5jtq9n9RL5q78tYy'
p3092
I2
tp3093
a(g14
S'1J3fntwm7f7b91dG6ZS6U3fw4JTuJpucaT'
p3094
I2
tp3095
a(g14
S'13Jq7JYrWxWAq9aEeezcsJsAGQE5iAQn84'
p3096
I2
tp3097
a(g14
S'17DZtcwyzy5C8S3E3rDQHGkVRQEbhoGVah'
p3098
I2
tp3099
a(g14
S'1PxxzAKwDGj6jpaMt9gAn6JxcfjEVYapxT'
p3100
I2
tp3101
a(g14
S'1JVzf97jjUNCL9W9hWoTbgFJQW3auLJRkC'
p3102
I2
tp3103
a(g14
S'12PdsxYm4LLyFabjZHvqRrznSBieZWDLdU'
p3104
I2
tp3105
a(g14
S'1LipL1FQ771LDF4XvvmFnL1ntm3fKzbKZ8'
p3106
I2
tp3107
a(g14
S'1C93J5DpbZtuzUtTg36kGTj2s8pCHRRUyf'
p3108
I2
tp3109
a(g14
S'123ejCV9Z2hU1TwAKKXCipcYYDHpBvNqc8'
p3110
I2
tp3111
a(g14
S'1DscYSv24hgm8j1vveRhNDkciDMLHnN7o6'
p3112
I2
tp3113
a(g14
S'1NS3Ad1DR93zicrRCWp4mHDCsJCNWxc21c'
p3114
I2
tp3115
a(g14
S'1SWfAg22MVwiSJz286xuU2bfB2WVowNP9'
p3116
I2
tp3117
a(g14
S'1GixACgusttXx7X2H9K1fUNq4jsXBKro4D'
p3118
I2
tp3119
a(g14
S'19oUb1CPrdwxXHadv2X2iEN3RDtoQpFzsb'
p3120
I2
tp3121
a(g14
S'1Mtk3a9C9AwbQEkmuqDRTLPXM1ztE7QjRk'
p3122
I2
tp3123
a(g14
S'17HdDZsRbanoH1S4z3cj3WutmFjTELCF3h'
p3124
I2
tp3125
a(g14
S'1MTYxYHLAn3WJ22RLJVXNuSRZVc78cx4Gx'
p3126
I2
tp3127
a(g14
S'18VHYFY6WY1Whb17G8NMBkBL7JLupbknHG'
p3128
I2
tp3129
a(g14
S'18BWUcyR9i5yjHWEDehPVpWJqNzZkKKtCN'
p3130
I2
tp3131
a(g14
S'1GZG3LbsaHSikNKsVUweNiPADoQNUdErZU'
p3132
I2
tp3133
a(g14
S'1D19MphuzpbH7ysvsD5ooLsk1tN1doZNqw'
p3134
I2
tp3135
a(g14
S'19ykQrJhemT4zicnPUCan3ceSQmTW7v6LL'
p3136
I2
tp3137
a(g14
S'161jyjaTLTrp9zrMwztnTK9rWRQBxpPy95'
p3138
I2
tp3139
a(g14
S'12cLhz7123KkJAfv2q7WFuDAiNTwqnCqrq'
p3140
I2
tp3141
a(g14
S'177v9tHkTdhYwZMHmZGyNFpg23ERKWWHFQ'
p3142
I2
tp3143
a(g14
S'16EUUYVkoDzDHJ96j1zhp8BBmeGs9cxWD2'
p3144
I2
tp3145
a(g14
S'15cqsBUpHrgNETpneBkZRizqq51nQpgyY1'
p3146
I2
tp3147
a(g14
S'1KTwmcXscS5NZ3FJEC63CyzyPSX6aMbe73'
p3148
I2
tp3149
a(g14
S'15Eh4D4y2mmTgFkvP1MvwgDRiQEhabi7UW'
p3150
I2
tp3151
a(g14
S'1JTgvzyjppQFXJNgkrCMCpyozkjcnuc5sd'
p3152
I2
tp3153
a(g14
S'1F8Gc9kkVjWnqedT6JR5sN1xC44zuav3pJ'
p3154
I2
tp3155
a(g14
S'19hcLAws1SDoKQy6EHKC6A45XDxCymx6MW'
p3156
I2
tp3157
a(g14
S'17XqoBJHGR8WEqKPDxT44PxD1y6xBE96Gr'
p3158
I2
tp3159
a(g14
S'18PmeYZX77uidH5H9iYBGbttWCBTZS5oc9'
p3160
I2
tp3161
a(g14
S'1KVwcCeUP6aEEEdFRfKqkz4HHSkxQXE6un'
p3162
I2
tp3163
a(g14
S'1CTBBy7uX4kLWsFQ9qfTFiE6RumfPsEeQr'
p3164
I2
tp3165
a(g14
S'1DQCURaQqpGSB3Qq7ccLj6YQQRcn9dXmGx'
p3166
I2
tp3167
a(g14
S'1CrNarCQdp92mkcv5qA8tyR6cWrXQN1KZU'
p3168
I2
tp3169
a(g14
S'17i5HuBWp2BVYsHQnSN17BiWZLsuUw5Ec6'
p3170
I2
tp3171
a(g14
S'15afpUqa2YeASJNDTp4VqndwSEwUkVHDrN'
p3172
I2
tp3173
a(g14
S'1NoF9WMQ8oLj7G7GBDAvuL726k52Dvm2pm'
p3174
I2
tp3175
a(g14
S'1Kcy4Q8xGxKC4kKQvhMshVnBGEkcXmtpg2'
p3176
I2
tp3177
a(g14
S'1C639GoENoawcvZMkuDswXz5MGSGj1VH8d'
p3178
I2
tp3179
a(g14
S'1EjaMAtNYUj62fCLnGp6BtcJQgFDtsgf8H'
p3180
I2
tp3181
a(g14
S'1BV1PVx4nNfKMGCPYzfK6UiJwRXwsB95f'
p3182
I2
tp3183
a(g14
S'1B2wfA77j8NP1Sy6A9rr4bE2btGkLP878A'
p3184
I2
tp3185
a(g14
S'1BeQkSRUihMo58vQXBgoKtgedFncpuTn5p'
p3186
I2
tp3187
a(g14
S'1HJH1RXdNTtDoYBKS7hqwutKizuSPzMSLV'
p3188
I2
tp3189
a(g14
S'1EdFYCm7AtrRugkspjgoa4HDLcJg94p92R'
p3190
I2
tp3191
a(g14
S'1PRGzTk4QTq5hUo3rMR6vuGQQcTySUHtgV'
p3192
I2
tp3193
a(g14
S'1Mhf3zBXaLshDkQzZeFz62YXp5qphPcjFs'
p3194
I2
tp3195
a(g14
S'18vC2Na7LSNg4ddyio9Fw7CNsWAccR83pb'
p3196
I2
tp3197
a(g14
S'1Dhy6AQvTiU2sXMjA2SV5zv3B3Bjea4mqX'
p3198
I2
tp3199
a(g14
S'1MRoP25cemS6HBQCi6WUUnSrmPWri5y84H'
p3200
I2
tp3201
a(g14
S'1FeUVFiQAiasWqLSnvV9z5kqubKuZ856XZ'
p3202
I2
tp3203
a(g14
S'14qHw89DdNnPjKaqBGfW6A7eNvWXCw17js'
p3204
I2
tp3205
a(g18
S'1Nz9TTCMwaM2bQu9gnMGxKj12r9Jkwe226'
p3206
I2
tp3207
a(g18
S'1Fg124HKvSpobZgn7PkP67qbwRu2SL8uiu'
p3208
I2
tp3209
a(g18
S'1Kp9JzwHhvFdmMd1WN6SbPYcekXB9XYsVV'
p3210
I2
tp3211
a(g18
S'1Fg124HKvSpobZgn7PkP67qbwRu2SL8uiu'
p3212
I2
tp3213
a(g18
S'1Kp9JzwHhvFdmMd1WN6SbPYcekXB9XYsVV'
p3214
I2
tp3215
a(g18
S'1Kp9JzwHhvFdmMd1WN6SbPYcekXB9XYsVV'
p3216
I2
tp3217
a(g18
S'1Nz9TTCMwaM2bQu9gnMGxKj12r9Jkwe226'
p3218
I2
tp3219
a(g18
S'1Nz9TTCMwaM2bQu9gnMGxKj12r9Jkwe226'
p3220
I2
tp3221
a(g18
S'1Nz9TTCMwaM2bQu9gnMGxKj12r9Jkwe226'
p3222
I2
tp3223
a(g18
S'1Nz9TTCMwaM2bQu9gnMGxKj12r9Jkwe226'
p3224
I2
tp3225
a(g18
S'1Nz9TTCMwaM2bQu9gnMGxKj12r9Jkwe226'
p3226
I2
tp3227
a(g18
S'1Fg124HKvSpobZgn7PkP67qbwRu2SL8uiu'
p3228
I2
tp3229
a(g18
S'1Fg124HKvSpobZgn7PkP67qbwRu2SL8uiu'
p3230
I2
tp3231
a(g18
S'1Fg124HKvSpobZgn7PkP67qbwRu2SL8uiu'
p3232
I2
tp3233
a(g18
S'1Nz9TTCMwaM2bQu9gnMGxKj12r9Jkwe226'
p3234
I2
tp3235
a(g18
S'1Fg124HKvSpobZgn7PkP67qbwRu2SL8uiu'
p3236
I2
tp3237
a(g18
S'1Nz9TTCMwaM2bQu9gnMGxKj12r9Jkwe226'
p3238
I2
tp3239
a(g18
S'1Nz9TTCMwaM2bQu9gnMGxKj12r9Jkwe226'
p3240
I2
tp3241
a(g18
S'1Fg124HKvSpobZgn7PkP67qbwRu2SL8uiu'
p3242
I2
tp3243
a(g18
S'1Fg124HKvSpobZgn7PkP67qbwRu2SL8uiu'
p3244
I2
tp3245
a(g18
S'1Nz9TTCMwaM2bQu9gnMGxKj12r9Jkwe226'
p3246
I2
tp3247
a(g18
S'1Fg124HKvSpobZgn7PkP67qbwRu2SL8uiu'
p3248
I2
tp3249
a(g18
S'1Fg124HKvSpobZgn7PkP67qbwRu2SL8uiu'
p3250
I2
tp3251
a(g18
S'1Fg124HKvSpobZgn7PkP67qbwRu2SL8uiu'
p3252
I2
tp3253
a(g18
S'1Nz9TTCMwaM2bQu9gnMGxKj12r9Jkwe226'
p3254
I2
tp3255
a(g18
S'1Fg124HKvSpobZgn7PkP67qbwRu2SL8uiu'
p3256
I2
tp3257
a(g18
S'1Nz9TTCMwaM2bQu9gnMGxKj12r9Jkwe226'
p3258
I2
tp3259
a(g18
S'1Fg124HKvSpobZgn7PkP67qbwRu2SL8uiu'
p3260
I2
tp3261
a(g18
S'1Nz9TTCMwaM2bQu9gnMGxKj12r9Jkwe226'
p3262
I2
tp3263
a(g18
S'1Nz9TTCMwaM2bQu9gnMGxKj12r9Jkwe226'
p3264
I2
tp3265
a(g18
S'1Fg124HKvSpobZgn7PkP67qbwRu2SL8uiu'
p3266
I2
tp3267
a(g18
S'1Nz9TTCMwaM2bQu9gnMGxKj12r9Jkwe226'
p3268
I2
tp3269
a(g18
S'1Fg124HKvSpobZgn7PkP67qbwRu2SL8uiu'
p3270
I2
tp3271
a(g18
S'1Fg124HKvSpobZgn7PkP67qbwRu2SL8uiu'
p3272
I2
tp3273
a(g18
S'1Nz9TTCMwaM2bQu9gnMGxKj12r9Jkwe226'
p3274
I2
tp3275
a(g18
S'1Fg124HKvSpobZgn7PkP67qbwRu2SL8uiu'
p3276
I2
tp3277
a(g18
S'1Kp9JzwHhvFdmMd1WN6SbPYcekXB9XYsVV'
p3278
I2
tp3279
a(g18
S'1Kp9JzwHhvFdmMd1WN6SbPYcekXB9XYsVV'
p3280
I2
tp3281
a(g18
S'1Fg124HKvSpobZgn7PkP67qbwRu2SL8uiu'
p3282
I2
tp3283
a(g18
S'1Nz9TTCMwaM2bQu9gnMGxKj12r9Jkwe226'
p3284
I2
tp3285
a(g18
S'1Fg124HKvSpobZgn7PkP67qbwRu2SL8uiu'
p3286
I2
tp3287
a(g18
S'1Fg124HKvSpobZgn7PkP67qbwRu2SL8uiu'
p3288
I2
tp3289
a(g18
S'1Kp9JzwHhvFdmMd1WN6SbPYcekXB9XYsVV'
p3290
I2
tp3291
a(g18
S'1Fg124HKvSpobZgn7PkP67qbwRu2SL8uiu'
p3292
I2
tp3293
a(g18
S'1Fg124HKvSpobZgn7PkP67qbwRu2SL8uiu'
p3294
I2
tp3295
a(g18
S'1Nz9TTCMwaM2bQu9gnMGxKj12r9Jkwe226'
p3296
I2
tp3297
a(g18
S'1Nz9TTCMwaM2bQu9gnMGxKj12r9Jkwe226'
p3298
I2
tp3299
a(g18
S'1Fg124HKvSpobZgn7PkP67qbwRu2SL8uiu'
p3300
I2
tp3301
a(g18
S'1Fg124HKvSpobZgn7PkP67qbwRu2SL8uiu'
p3302
I2
tp3303
a(g18
S'1Nz9TTCMwaM2bQu9gnMGxKj12r9Jkwe226'
p3304
I2
tp3305
a(g18
S'1Fg124HKvSpobZgn7PkP67qbwRu2SL8uiu'
p3306
I2
tp3307
a(g18
S'1Nz9TTCMwaM2bQu9gnMGxKj12r9Jkwe226'
p3308
I2
tp3309
a(g18
S'1Fg124HKvSpobZgn7PkP67qbwRu2SL8uiu'
p3310
I2
tp3311
a(g18
S'1Fg124HKvSpobZgn7PkP67qbwRu2SL8uiu'
p3312
I2
tp3313
a(g18
S'1Fg124HKvSpobZgn7PkP67qbwRu2SL8uiu'
p3314
I2
tp3315
a(g18
S'1F6JJGarMDtpd2gV2TPqikQptG5yjBCmR4'
p3316
I2
tp3317
a(g18
S'1Fg124HKvSpobZgn7PkP67qbwRu2SL8uiu'
p3318
I2
tp3319
a(g18
S'1Fg124HKvSpobZgn7PkP67qbwRu2SL8uiu'
p3320
I2
tp3321
a(g18
S'1Kp9JzwHhvFdmMd1WN6SbPYcekXB9XYsVV'
p3322
I2
tp3323
a(g18
S'1Fg124HKvSpobZgn7PkP67qbwRu2SL8uiu'
p3324
I2
tp3325
a(g18
S'1Fg124HKvSpobZgn7PkP67qbwRu2SL8uiu'
p3326
I2
tp3327
a(g18
S'1Kp9JzwHhvFdmMd1WN6SbPYcekXB9XYsVV'
p3328
I2
tp3329
a(g18
S'1Fg124HKvSpobZgn7PkP67qbwRu2SL8uiu'
p3330
I2
tp3331
a(g18
S'1JF2L6ef6asDe2BnmzwPvhA4FRPPBXGmor'
p3332
I2
tp3333
a(g18
S'1Fg124HKvSpobZgn7PkP67qbwRu2SL8uiu'
p3334
I2
tp3335
a(g18
S'1Nz9TTCMwaM2bQu9gnMGxKj12r9Jkwe226'
p3336
I2
tp3337
a(g18
S'1Fg124HKvSpobZgn7PkP67qbwRu2SL8uiu'
p3338
I2
tp3339
a(g18
S'1Fg124HKvSpobZgn7PkP67qbwRu2SL8uiu'
p3340
I2
tp3341
a(g18
S'1Fg124HKvSpobZgn7PkP67qbwRu2SL8uiu'
p3342
I2
tp3343
a(g18
S'1Fg124HKvSpobZgn7PkP67qbwRu2SL8uiu'
p3344
I2
tp3345
a(g18
S'1Nz9TTCMwaM2bQu9gnMGxKj12r9Jkwe226'
p3346
I2
tp3347
a(g18
S'1Fg124HKvSpobZgn7PkP67qbwRu2SL8uiu'
p3348
I2
tp3349
a(g18
S'1Nz9TTCMwaM2bQu9gnMGxKj12r9Jkwe226'
p3350
I2
tp3351
a(g18
S'1Fg124HKvSpobZgn7PkP67qbwRu2SL8uiu'
p3352
I2
tp3353
a(g18
S'1Fg124HKvSpobZgn7PkP67qbwRu2SL8uiu'
p3354
I2
tp3355
a(g18
S'1Nz9TTCMwaM2bQu9gnMGxKj12r9Jkwe226'
p3356
I2
tp3357
a(g18
S'1JF2L6ef6asDe2BnmzwPvhA4FRPPBXGmor'
p3358
I2
tp3359
a(g18
S'1Fg124HKvSpobZgn7PkP67qbwRu2SL8uiu'
p3360
I2
tp3361
a(g18
S'1Nz9TTCMwaM2bQu9gnMGxKj12r9Jkwe226'
p3362
I2
tp3363
a(g18
S'1Fg124HKvSpobZgn7PkP67qbwRu2SL8uiu'
p3364
I2
tp3365
a(g18
S'1Fg124HKvSpobZgn7PkP67qbwRu2SL8uiu'
p3366
I2
tp3367
a(g18
S'1Nz9TTCMwaM2bQu9gnMGxKj12r9Jkwe226'
p3368
I2
tp3369
a(g18
S'1Nz9TTCMwaM2bQu9gnMGxKj12r9Jkwe226'
p3370
I2
tp3371
a(g18
S'1Fg124HKvSpobZgn7PkP67qbwRu2SL8uiu'
p3372
I2
tp3373
a(g18
S'1Fg124HKvSpobZgn7PkP67qbwRu2SL8uiu'
p3374
I2
tp3375
a(g18
S'1Nz9TTCMwaM2bQu9gnMGxKj12r9Jkwe226'
p3376
I2
tp3377
a(g18
S'1Nz9TTCMwaM2bQu9gnMGxKj12r9Jkwe226'
p3378
I2
tp3379
a(g18
S'1Fg124HKvSpobZgn7PkP67qbwRu2SL8uiu'
p3380
I2
tp3381
a(g18
S'1Nz9TTCMwaM2bQu9gnMGxKj12r9Jkwe226'
p3382
I2
tp3383
a(g18
S'1Fg124HKvSpobZgn7PkP67qbwRu2SL8uiu'
p3384
I2
tp3385
a(g18
S'1Fg124HKvSpobZgn7PkP67qbwRu2SL8uiu'
p3386
I2
tp3387
a(g18
S'1JF2L6ef6asDe2BnmzwPvhA4FRPPBXGmor'
p3388
I2
tp3389
a(g18
S'1Fg124HKvSpobZgn7PkP67qbwRu2SL8uiu'
p3390
I2
tp3391
a(g18
S'1Nz9TTCMwaM2bQu9gnMGxKj12r9Jkwe226'
p3392
I2
tp3393
a(g18
S'1Kp9JzwHhvFdmMd1WN6SbPYcekXB9XYsVV'
p3394
I2
tp3395
a(g18
S'1Fg124HKvSpobZgn7PkP67qbwRu2SL8uiu'
p3396
I2
tp3397
a(g18
S'1Nz9TTCMwaM2bQu9gnMGxKj12r9Jkwe226'
p3398
I2
tp3399
a(g18
S'1Nz9TTCMwaM2bQu9gnMGxKj12r9Jkwe226'
p3400
I2
tp3401
a(g18
S'1Kp9JzwHhvFdmMd1WN6SbPYcekXB9XYsVV'
p3402
I2
tp3403
a(g18
S'1Nz9TTCMwaM2bQu9gnMGxKj12r9Jkwe226'
p3404
I2
tp3405
a(g18
S'1Nz9TTCMwaM2bQu9gnMGxKj12r9Jkwe226'
p3406
I2
tp3407
a(g18
S'1Nz9TTCMwaM2bQu9gnMGxKj12r9Jkwe226'
p3408
I2
tp3409
a(g18
S'16hTS932mUKeeiBXpawxBA5fiBy228zbsd'
p3410
I2
tp3411
a(g18
S'1Fg124HKvSpobZgn7PkP67qbwRu2SL8uiu'
p3412
I2
tp3413
a(g18
S'1Nz9TTCMwaM2bQu9gnMGxKj12r9Jkwe226'
p3414
I2
tp3415
a(g18
S'1Nz9TTCMwaM2bQu9gnMGxKj12r9Jkwe226'
p3416
I2
tp3417
a(g18
S'1Nz9TTCMwaM2bQu9gnMGxKj12r9Jkwe226'
p3418
I2
tp3419
a(g18
S'1KXr2GcMSsQXSaVyAVZCNjeD831JAMebhH'
p3420
I2
tp3421
a(g18
S'1Fg124HKvSpobZgn7PkP67qbwRu2SL8uiu'
p3422
I2
tp3423
a(g18
S'1Fg124HKvSpobZgn7PkP67qbwRu2SL8uiu'
p3424
I2
tp3425
a(g18
S'1Fg124HKvSpobZgn7PkP67qbwRu2SL8uiu'
p3426
I2
tp3427
a(g18
S'1BNhpRwVwUhYkwuMHKA13WwkYw9Wp4Uvyt'
p3428
I2
tp3429
a(g18
S'19NEyvpY5BWzLR93fByDPmRYtdzBRmbFZY'
p3430
I2
tp3431
a(g18
S'1JF2L6ef6asDe2BnmzwPvhA4FRPPBXGmor'
p3432
I2
tp3433
a(g18
S'1Nz9TTCMwaM2bQu9gnMGxKj12r9Jkwe226'
p3434
I2
tp3435
a(g18
S'1Kp9JzwHhvFdmMd1WN6SbPYcekXB9XYsVV'
p3436
I2
tp3437
a(g18
S'1Kp9JzwHhvFdmMd1WN6SbPYcekXB9XYsVV'
p3438
I2
tp3439
a(g18
S'1Nz9TTCMwaM2bQu9gnMGxKj12r9Jkwe226'
p3440
I2
tp3441
a(g18
S'1Nz9TTCMwaM2bQu9gnMGxKj12r9Jkwe226'
p3442
I2
tp3443
a(g18
S'1Kp9JzwHhvFdmMd1WN6SbPYcekXB9XYsVV'
p3444
I2
tp3445
a(g18
S'1JF2L6ef6asDe2BnmzwPvhA4FRPPBXGmor'
p3446
I2
tp3447
a(g18
S'1Nz9TTCMwaM2bQu9gnMGxKj12r9Jkwe226'
p3448
I2
tp3449
a(g18
S'1JF2L6ef6asDe2BnmzwPvhA4FRPPBXGmor'
p3450
I2
tp3451
a(g18
S'1Nz9TTCMwaM2bQu9gnMGxKj12r9Jkwe226'
p3452
I2
tp3453
a(g18
S'1JF2L6ef6asDe2BnmzwPvhA4FRPPBXGmor'
p3454
I2
tp3455
a(g18
S'1Fg124HKvSpobZgn7PkP67qbwRu2SL8uiu'
p3456
I2
tp3457
a(g18
S'1Fg124HKvSpobZgn7PkP67qbwRu2SL8uiu'
p3458
I2
tp3459
a(g18
S'1JF2L6ef6asDe2BnmzwPvhA4FRPPBXGmor'
p3460
I2
tp3461
a(g18
S'1JF2L6ef6asDe2BnmzwPvhA4FRPPBXGmor'
p3462
I2
tp3463
a(g18
S'1JF2L6ef6asDe2BnmzwPvhA4FRPPBXGmor'
p3464
I2
tp3465
a(g18
S'1Fg124HKvSpobZgn7PkP67qbwRu2SL8uiu'
p3466
I2
tp3467
a(g18
S'1Nz9TTCMwaM2bQu9gnMGxKj12r9Jkwe226'
p3468
I2
tp3469
a(g18
S'1Nz9TTCMwaM2bQu9gnMGxKj12r9Jkwe226'
p3470
I2
tp3471
a(g18
S'1Nz9TTCMwaM2bQu9gnMGxKj12r9Jkwe226'
p3472
I2
tp3473
a(g18
S'1Nz9TTCMwaM2bQu9gnMGxKj12r9Jkwe226'
p3474
I2
tp3475
a(g18
S'1Kp9JzwHhvFdmMd1WN6SbPYcekXB9XYsVV'
p3476
I2
tp3477
a(g18
S'1Kp9JzwHhvFdmMd1WN6SbPYcekXB9XYsVV'
p3478
I2
tp3479
a(g18
S'1KXr2GcMSsQXSaVyAVZCNjeD831JAMebhH'
p3480
I2
tp3481
a(g18
S'1Fg124HKvSpobZgn7PkP67qbwRu2SL8uiu'
p3482
I2
tp3483
a(g18
S'1Fg124HKvSpobZgn7PkP67qbwRu2SL8uiu'
p3484
I2
tp3485
a(g18
S'1Kp9JzwHhvFdmMd1WN6SbPYcekXB9XYsVV'
p3486
I2
tp3487
a(g18
S'1Fg124HKvSpobZgn7PkP67qbwRu2SL8uiu'
p3488
I2
tp3489
a(g18
S'1Nz9TTCMwaM2bQu9gnMGxKj12r9Jkwe226'
p3490
I2
tp3491
a(g18
S'1Fg124HKvSpobZgn7PkP67qbwRu2SL8uiu'
p3492
I2
tp3493
a(g18
S'1Fg124HKvSpobZgn7PkP67qbwRu2SL8uiu'
p3494
I2
tp3495
a(g18
S'1KXr2GcMSsQXSaVyAVZCNjeD831JAMebhH'
p3496
I2
tp3497
a(g18
S'1Fg124HKvSpobZgn7PkP67qbwRu2SL8uiu'
p3498
I2
tp3499
a(g18
S'1Nz9TTCMwaM2bQu9gnMGxKj12r9Jkwe226'
p3500
I2
tp3501
a(g18
S'1Fg124HKvSpobZgn7PkP67qbwRu2SL8uiu'
p3502
I2
tp3503
a(g18
S'1Fg124HKvSpobZgn7PkP67qbwRu2SL8uiu'
p3504
I2
tp3505
a(g18
S'1Fg124HKvSpobZgn7PkP67qbwRu2SL8uiu'
p3506
I2
tp3507
a(g18
S'1Nz9TTCMwaM2bQu9gnMGxKj12r9Jkwe226'
p3508
I2
tp3509
a(g18
S'1vY3wW1wNDZ4NSo9oFq1219rojMipE31d'
p3510
I2
tp3511
a(g18
S'1Fg124HKvSpobZgn7PkP67qbwRu2SL8uiu'
p3512
I2
tp3513
a(g18
S'1Fg124HKvSpobZgn7PkP67qbwRu2SL8uiu'
p3514
I2
tp3515
a(g18
S'1Fg124HKvSpobZgn7PkP67qbwRu2SL8uiu'
p3516
I2
tp3517
a(g18
S'1Nz9TTCMwaM2bQu9gnMGxKj12r9Jkwe226'
p3518
I2
tp3519
a(g18
S'1Kp9JzwHhvFdmMd1WN6SbPYcekXB9XYsVV'
p3520
I2
tp3521
a(g18
S'1JF2L6ef6asDe2BnmzwPvhA4FRPPBXGmor'
p3522
I2
tp3523
a(g18
S'1Fg124HKvSpobZgn7PkP67qbwRu2SL8uiu'
p3524
I2
tp3525
a(g18
S'1JF2L6ef6asDe2BnmzwPvhA4FRPPBXGmor'
p3526
I2
tp3527
a(g18
S'1Kp9JzwHhvFdmMd1WN6SbPYcekXB9XYsVV'
p3528
I2
tp3529
a(g18
S'1JF2L6ef6asDe2BnmzwPvhA4FRPPBXGmor'
p3530
I2
tp3531
a(g18
S'1Nz9TTCMwaM2bQu9gnMGxKj12r9Jkwe226'
p3532
I2
tp3533
a(g18
S'1Fg124HKvSpobZgn7PkP67qbwRu2SL8uiu'
p3534
I2
tp3535
a(g18
S'1Fg124HKvSpobZgn7PkP67qbwRu2SL8uiu'
p3536
I2
tp3537
a(g18
S'1Kp9JzwHhvFdmMd1WN6SbPYcekXB9XYsVV'
p3538
I2
tp3539
a(g18
S'1Fg124HKvSpobZgn7PkP67qbwRu2SL8uiu'
p3540
I2
tp3541
a(g18
S'1Fg124HKvSpobZgn7PkP67qbwRu2SL8uiu'
p3542
I2
tp3543
a(g18
S'1Nz9TTCMwaM2bQu9gnMGxKj12r9Jkwe226'
p3544
I2
tp3545
a(g18
S'1Nz9TTCMwaM2bQu9gnMGxKj12r9Jkwe226'
p3546
I2
tp3547
a(g18
S'1Fg124HKvSpobZgn7PkP67qbwRu2SL8uiu'
p3548
I2
tp3549
a(g18
S'1Kp9JzwHhvFdmMd1WN6SbPYcekXB9XYsVV'
p3550
I2
tp3551
a(g18
S'1Kp9JzwHhvFdmMd1WN6SbPYcekXB9XYsVV'
p3552
I2
tp3553
a(g18
S'1Nz9TTCMwaM2bQu9gnMGxKj12r9Jkwe226'
p3554
I2
tp3555
a(g18
S'1Nz9TTCMwaM2bQu9gnMGxKj12r9Jkwe226'
p3556
I2
tp3557
a(g18
S'1Fg124HKvSpobZgn7PkP67qbwRu2SL8uiu'
p3558
I2
tp3559
a(g18
S'1Fg124HKvSpobZgn7PkP67qbwRu2SL8uiu'
p3560
I2
tp3561
a(g18
S'1Kp9JzwHhvFdmMd1WN6SbPYcekXB9XYsVV'
p3562
I2
tp3563
a(g18
S'1Fg124HKvSpobZgn7PkP67qbwRu2SL8uiu'
p3564
I2
tp3565
a(g18
S'1HHaqNrykjAe7aMW9TtnYoVedfCYgAVR7H'
p3566
I2
tp3567
a(g18
S'14LDmvVRczaSe342AB56nSqTJxhdDXDBYC'
p3568
I2
tp3569
a(g18
S'1JF2L6ef6asDe2BnmzwPvhA4FRPPBXGmor'
p3570
I2
tp3571
a(g18
S'1KXr2GcMSsQXSaVyAVZCNjeD831JAMebhH'
p3572
I2
tp3573
a(g18
S'1Kp9JzwHhvFdmMd1WN6SbPYcekXB9XYsVV'
p3574
I2
tp3575
a(g18
S'1KXr2GcMSsQXSaVyAVZCNjeD831JAMebhH'
p3576
I2
tp3577
a(g18
S'1JF2L6ef6asDe2BnmzwPvhA4FRPPBXGmor'
p3578
I2
tp3579
a(g18
S'1Nz9TTCMwaM2bQu9gnMGxKj12r9Jkwe226'
p3580
I2
tp3581
a(g18
S'1Kp9JzwHhvFdmMd1WN6SbPYcekXB9XYsVV'
p3582
I2
tp3583
a(g18
S'1Fg124HKvSpobZgn7PkP67qbwRu2SL8uiu'
p3584
I2
tp3585
a(g18
S'12GBK8hgsiLGcf7E6vsgBuUNBviE9eZmge'
p3586
I2
tp3587
a(g18
S'1JF2L6ef6asDe2BnmzwPvhA4FRPPBXGmor'
p3588
I2
tp3589
a(g18
S'1KXr2GcMSsQXSaVyAVZCNjeD831JAMebhH'
p3590
I2
tp3591
a(g18
S'1Nz9TTCMwaM2bQu9gnMGxKj12r9Jkwe226'
p3592
I2
tp3593
a(g18
S'1CsEMmcDbCi55HejTaUXdtzSpDZmMu1jDx'
p3594
I2
tp3595
a(g18
S'1KXr2GcMSsQXSaVyAVZCNjeD831JAMebhH'
p3596
I2
tp3597
a(g18
S'1Fg124HKvSpobZgn7PkP67qbwRu2SL8uiu'
p3598
I2
tp3599
a(g18
S'1Nz9TTCMwaM2bQu9gnMGxKj12r9Jkwe226'
p3600
I2
tp3601
a(g18
S'1Nz9TTCMwaM2bQu9gnMGxKj12r9Jkwe226'
p3602
I2
tp3603
a(g18
S'1Nz9TTCMwaM2bQu9gnMGxKj12r9Jkwe226'
p3604
I2
tp3605
a(g18
S'1Kp9JzwHhvFdmMd1WN6SbPYcekXB9XYsVV'
p3606
I2
tp3607
a(g18
S'1Kp9JzwHhvFdmMd1WN6SbPYcekXB9XYsVV'
p3608
I2
tp3609
a(g18
S'1HkUWUkkrSp4DNVmJoHguuBw2QjgyZtiu3'
p3610
I2
tp3611
a(g18
S'1BXXdK9ryCJJWLgHcFwUDZWkvv5JSkFGLL'
p3612
I2
tp3613
a(g18
S'1BuKuMSeDqsWSHNrtfGX3yY3fvR9MdJemL'
p3614
I2
tp3615
a(g18
S'1NLikgQaqxB3rgymLvChC8NYCjmHpYXXi1'
p3616
I2
tp3617
a(g18
S'135LjhGm5EjS4HcBRr4cnwvX12ZVKcvVjh'
p3618
I2
tp3619
a(g18
S'1GwtRayToYESWMWiiyFywpBrXdmcMEDyZC'
p3620
I2
tp3621
a(g18
S'18iEKGEwBHK2pJYUMrryQRyF1dCtBu4e5J'
p3622
I2
tp3623
a(g18
S'14qw2qUaDMGsoL1H8BQuL8MUxLHrnA1Dkv'
p3624
I2
tp3625
a(g18
S'1JZaYrbToj6fBvasanmCksfTSbuDxLjLv7'
p3626
I2
tp3627
a(g18
S'1J3AeqbiUHYUJSez9JjSkzXDC9ytR2XHNg'
p3628
I2
tp3629
a(g18
S'16PdDSUfwbiGbuYQPnE5Lft7vHLgusF4Bt'
p3630
I2
tp3631
a(g18
S'1DbvgXg7NUhVxrjGK4JRwjDeZpZqT8a6Qr'
p3632
I2
tp3633
a(g18
S'1KzWnFfJrBMW5GvLr6wXobhN8BCbCWh8r7'
p3634
I2
tp3635
a(g18
S'1KXr2GcMSsQXSaVyAVZCNjeD831JAMebhH'
p3636
I2
tp3637
a(g18
S'1JF2L6ef6asDe2BnmzwPvhA4FRPPBXGmor'
p3638
I2
tp3639
a(g18
S'1JF2L6ef6asDe2BnmzwPvhA4FRPPBXGmor'
p3640
I2
tp3641
a(g18
S'1KXr2GcMSsQXSaVyAVZCNjeD831JAMebhH'
p3642
I2
tp3643
a(g18
S'1M7ApHKJUxcbzgWWGzQEdeptRwAYUuj5kK'
p3644
I2
tp3645
a(g18
S'1Q3fgCJa5MrMzJ8AqCoqe4bmoMbz2H4fZB'
p3646
I2
tp3647
a(g18
S'16myhcy2McSSHkv9vjM5F3dmKdwFFiRg35'
p3648
I2
tp3649
a(g18
S'1LPNCxVYVFhtkam2j4tAUfDBSBa5bZg9BT'
p3650
I2
tp3651
a(g18
S'1JqkaWcv4ELqFTVBFvvHUGCw2NFQj3o7K6'
p3652
I2
tp3653
a(g18
S'1ChCoe1BRyMMNyNC6GrWyC7yGeGdfP2mCX'
p3654
I2
tp3655
a(g18
S'12z6S8KVsKpNEbXaXdGKZ4SQuzn3XJoWyv'
p3656
I2
tp3657
a(g18
S'1MvqAvAP8vL13Y7HdXhiaEvgXHub3LYDNx'
p3658
I2
tp3659
a(g18
S'122CD5LpaHYNaovcoX2YrBeG5zLc5TKkrS'
p3660
I2
tp3661
a(g18
S'1FniFvUkxn5qtGGLAFcATwvhKvqQRHbFYH'
p3662
I2
tp3663
a(g18
S'1Cy1uyNfUznhMCfimd198vrBxeXQMQgwu8'
p3664
I2
tp3665
a(g18
S'13e7SnLq9e2bfxJH3SKnAaDkr7rkVr2vSe'
p3666
I2
tp3667
a(g18
S'1GyCE447ZrT99Kr3ecqVAecabzYmD8bSVu'
p3668
I2
tp3669
a(g18
S'1Hp9abu98LveSmUg8xs8ozPoHqsteMyNHY'
p3670
I2
tp3671
a(g18
S'1JcZw2aRLmLmXDdfUmc8aLgSqWUa8mChC2'
p3672
I2
tp3673
a(g18
S'18Kd99nPKv1XvRYc2Zw7gxU6aA1WoMcr4Z'
p3674
I2
tp3675
a(g18
S'1FG3ZSKoKSth75dLpWT1E5vMu5hz44X4NZ'
p3676
I2
tp3677
a(g18
S'13KfuygWTKcGNonEPJRhz9P5Zz7sJKPMpg'
p3678
I2
tp3679
a(g18
S'1KipSVTP7RMh3DiUxBd1wfGuid4FVeJaNZ'
p3680
I2
tp3681
a(g18
S'1L2cyq8ot9w4kcNtssq74bMvARetyk4amA'
p3682
I2
tp3683
a(g18
S'1HY1d53nvcEqsQ4VNhxGcDRfWUVvT6tFAF'
p3684
I2
tp3685
a(g18
S'1JF2L6ef6asDe2BnmzwPvhA4FRPPBXGmor'
p3686
I2
tp3687
a(g18
S'1JF2L6ef6asDe2BnmzwPvhA4FRPPBXGmor'
p3688
I2
tp3689
a(g18
S'1KXr2GcMSsQXSaVyAVZCNjeD831JAMebhH'
p3690
I2
tp3691
a(g18
S'1KzWnFfJrBMW5GvLr6wXobhN8BCbCWh8r7'
p3692
I2
tp3693
a(g18
S'16pGktS8jszKCMyvBVB63Pc76dGDZsH1E3'
p3694
I2
tp3695
a(g18
S'1EDyw5twAASkzEZL15qVBrTHJfybVqN1Y1'
p3696
I2
tp3697
a(g18
S'1C3LcQYDxyc57ix4Dzxmu4f4A99RwZzuEH'
p3698
I2
tp3699
a(g18
S'1HNArqXqE41BM9vQyV7LT7LLLdUf8ci2pC'
p3700
I2
tp3701
a(g18
S'12dbnxh4Gp7KLn6P6yfUgSKVvE5pXRqbFX'
p3702
I2
tp3703
a(g18
S'1CSBt79Y4Pf6YnEr1sAuBBuy6hSPxSN6T6'
p3704
I2
tp3705
a(g18
S'1MpTWt8NZqCwW44ZSbRjcSeZVQkZPy8XFY'
p3706
I2
tp3707
a(g18
S'1JFZAk5RUWTztWw4fug4JwEVTXZniR4dK4'
p3708
I2
tp3709
a(g18
S'1JF2L6ef6asDe2BnmzwPvhA4FRPPBXGmor'
p3710
I2
tp3711
a(g18
S'1JF2L6ef6asDe2BnmzwPvhA4FRPPBXGmor'
p3712
I2
tp3713
a(g18
S'1JF2L6ef6asDe2BnmzwPvhA4FRPPBXGmor'
p3714
I2
tp3715
a(g18
S'1JF2L6ef6asDe2BnmzwPvhA4FRPPBXGmor'
p3716
I2
tp3717
a(g18
S'1KXr2GcMSsQXSaVyAVZCNjeD831JAMebhH'
p3718
I2
tp3719
a(g18
S'1KXr2GcMSsQXSaVyAVZCNjeD831JAMebhH'
p3720
I2
tp3721
a(g18
S'1JF2L6ef6asDe2BnmzwPvhA4FRPPBXGmor'
p3722
I2
tp3723
a(g18
S'1JF2L6ef6asDe2BnmzwPvhA4FRPPBXGmor'
p3724
I2
tp3725
a(g18
S'1DL2LEroT53jagSr8saFzxYWqL6WBuU9yP'
p3726
I2
tp3727
a(g18
S'1JF2L6ef6asDe2BnmzwPvhA4FRPPBXGmor'
p3728
I2
tp3729
a(g18
S'1JF2L6ef6asDe2BnmzwPvhA4FRPPBXGmor'
p3730
I2
tp3731
a(g18
S'1KXr2GcMSsQXSaVyAVZCNjeD831JAMebhH'
p3732
I2
tp3733
a(g18
S'1KXr2GcMSsQXSaVyAVZCNjeD831JAMebhH'
p3734
I2
tp3735
a(g18
S'1JF2L6ef6asDe2BnmzwPvhA4FRPPBXGmor'
p3736
I2
tp3737
a(g18
S'1KXr2GcMSsQXSaVyAVZCNjeD831JAMebhH'
p3738
I2
tp3739
a(g18
S'1JF2L6ef6asDe2BnmzwPvhA4FRPPBXGmor'
p3740
I2
tp3741
a(g18
S'1JF2L6ef6asDe2BnmzwPvhA4FRPPBXGmor'
p3742
I2
tp3743
a(g18
S'1JF2L6ef6asDe2BnmzwPvhA4FRPPBXGmor'
p3744
I2
tp3745
a(g18
S'1JF2L6ef6asDe2BnmzwPvhA4FRPPBXGmor'
p3746
I2
tp3747
a(g18
S'1KXr2GcMSsQXSaVyAVZCNjeD831JAMebhH'
p3748
I2
tp3749
a(g18
S'14kUBGe1MHrxPp9wNF8muJaWkuLQViYBPk'
p3750
I2
tp3751
a(g18
S'1JF2L6ef6asDe2BnmzwPvhA4FRPPBXGmor'
p3752
I2
tp3753
a(g18
S'1JF2L6ef6asDe2BnmzwPvhA4FRPPBXGmor'
p3754
I2
tp3755
a(g18
S'1JF2L6ef6asDe2BnmzwPvhA4FRPPBXGmor'
p3756
I2
tp3757
a(g18
S'1JF2L6ef6asDe2BnmzwPvhA4FRPPBXGmor'
p3758
I2
tp3759
a(g18
S'1JF2L6ef6asDe2BnmzwPvhA4FRPPBXGmor'
p3760
I2
tp3761
a(g18
S'1JF2L6ef6asDe2BnmzwPvhA4FRPPBXGmor'
p3762
I2
tp3763
a(g18
S'1JF2L6ef6asDe2BnmzwPvhA4FRPPBXGmor'
p3764
I2
tp3765
a(g18
S'1JF2L6ef6asDe2BnmzwPvhA4FRPPBXGmor'
p3766
I2
tp3767
a(g18
S'1JF2L6ef6asDe2BnmzwPvhA4FRPPBXGmor'
p3768
I2
tp3769
a(g18
S'1JF2L6ef6asDe2BnmzwPvhA4FRPPBXGmor'
p3770
I2
tp3771
a(g18
S'1DL2LEroT53jagSr8saFzxYWqL6WBuU9yP'
p3772
I2
tp3773
a(g18
S'1JF2L6ef6asDe2BnmzwPvhA4FRPPBXGmor'
p3774
I2
tp3775
a(g18
S'1JF2L6ef6asDe2BnmzwPvhA4FRPPBXGmor'
p3776
I2
tp3777
a(g18
S'1JF2L6ef6asDe2BnmzwPvhA4FRPPBXGmor'
p3778
I2
tp3779
a(g18
S'1KXr2GcMSsQXSaVyAVZCNjeD831JAMebhH'
p3780
I2
tp3781
a(g18
S'1JF2L6ef6asDe2BnmzwPvhA4FRPPBXGmor'
p3782
I2
tp3783
a(g18
S'1KXr2GcMSsQXSaVyAVZCNjeD831JAMebhH'
p3784
I2
tp3785
a(g18
S'1JF2L6ef6asDe2BnmzwPvhA4FRPPBXGmor'
p3786
I2
tp3787
a(g18
S'1vY3wW1wNDZ4NSo9oFq1219rojMipE31d'
p3788
I2
tp3789
a(g18
S'135gKcXNDC5y4RFAG3M86vYZgYuR9JTkXm'
p3790
I2
tp3791
a(g18
S'1KXr2GcMSsQXSaVyAVZCNjeD831JAMebhH'
p3792
I2
tp3793
a(g18
S'1KXr2GcMSsQXSaVyAVZCNjeD831JAMebhH'
p3794
I2
tp3795
a(g18
S'1JF2L6ef6asDe2BnmzwPvhA4FRPPBXGmor'
p3796
I2
tp3797
a(g18
S'1KXr2GcMSsQXSaVyAVZCNjeD831JAMebhH'
p3798
I2
tp3799
a(g18
S'195BTVJuXa4d7wuU1YYy7tgVkQm6QRNSaD'
p3800
I2
tp3801
a(g18
S'1JF2L6ef6asDe2BnmzwPvhA4FRPPBXGmor'
p3802
I2
tp3803
a(g18
S'1JF2L6ef6asDe2BnmzwPvhA4FRPPBXGmor'
p3804
I2
tp3805
a(g18
S'1KXr2GcMSsQXSaVyAVZCNjeD831JAMebhH'
p3806
I2
tp3807
a(g18
S'1JF2L6ef6asDe2BnmzwPvhA4FRPPBXGmor'
p3808
I2
tp3809
a(g18
S'1KXr2GcMSsQXSaVyAVZCNjeD831JAMebhH'
p3810
I2
tp3811
a(g18
S'1JF2L6ef6asDe2BnmzwPvhA4FRPPBXGmor'
p3812
I2
tp3813
a(g18
S'1KXr2GcMSsQXSaVyAVZCNjeD831JAMebhH'
p3814
I2
tp3815
a(g18
S'1JF2L6ef6asDe2BnmzwPvhA4FRPPBXGmor'
p3816
I2
tp3817
a(g18
S'1KXr2GcMSsQXSaVyAVZCNjeD831JAMebhH'
p3818
I2
tp3819
a(g18
S'1KXr2GcMSsQXSaVyAVZCNjeD831JAMebhH'
p3820
I2
tp3821
a(g18
S'1JF2L6ef6asDe2BnmzwPvhA4FRPPBXGmor'
p3822
I2
tp3823
a(g18
S'1JF2L6ef6asDe2BnmzwPvhA4FRPPBXGmor'
p3824
I2
tp3825
a(g18
S'1KXr2GcMSsQXSaVyAVZCNjeD831JAMebhH'
p3826
I2
tp3827
a(g18
S'1JF2L6ef6asDe2BnmzwPvhA4FRPPBXGmor'
p3828
I2
tp3829
a(g18
S'1JF2L6ef6asDe2BnmzwPvhA4FRPPBXGmor'
p3830
I2
tp3831
a(g18
S'1JF2L6ef6asDe2BnmzwPvhA4FRPPBXGmor'
p3832
I2
tp3833
a(g18
S'1JF2L6ef6asDe2BnmzwPvhA4FRPPBXGmor'
p3834
I2
tp3835
a(g18
S'1JF2L6ef6asDe2BnmzwPvhA4FRPPBXGmor'
p3836
I2
tp3837
a(g18
S'1KXr2GcMSsQXSaVyAVZCNjeD831JAMebhH'
p3838
I2
tp3839
a(g18
S'1KXr2GcMSsQXSaVyAVZCNjeD831JAMebhH'
p3840
I2
tp3841
a(g18
S'1KXr2GcMSsQXSaVyAVZCNjeD831JAMebhH'
p3842
I2
tp3843
a(g18
S'1KXr2GcMSsQXSaVyAVZCNjeD831JAMebhH'
p3844
I2
tp3845
a(g18
S'1JF2L6ef6asDe2BnmzwPvhA4FRPPBXGmor'
p3846
I2
tp3847
a(g18
S'1JF2L6ef6asDe2BnmzwPvhA4FRPPBXGmor'
p3848
I2
tp3849
a(g18
S'1JF2L6ef6asDe2BnmzwPvhA4FRPPBXGmor'
p3850
I2
tp3851
a(g18
S'1HFmRncB3gUar5pANBFRFm6f5jKk2sx339'
p3852
I2
tp3853
a(g18
S'1NgrWXmH7xmryhJXP5VQhDDVzLSWbVqPdZ'
p3854
I2
tp3855
a(g18
S'1E1VMX15Q5Q1Ch9nccHJPiQiTDsHnXjbrK'
p3856
I2
tp3857
a(g18
S'1ELUzQbx163h8T1aSLDMy46X1zS5EfJv52'
p3858
I2
tp3859
a(g18
S'12RH2j1iXWTCsyxDkRZxDJYs3MaDCf4owQ'
p3860
I2
tp3861
a(g18
S'1Lx8RWhtZeeeoMrEQGdyD5hoTrenDpMGq6'
p3862
I2
tp3863
a(g18
S'14StaF5Bg4Lm41JQ7xNdVFmWue4ZboNxtv'
p3864
I2
tp3865
a(g18
S'1E92tXVTdhmaxNZafcduKpzVkwBuVtiV6i'
p3866
I2
tp3867
a(g18
S'1EFi7dPQoGkUyBTmdDPurcvHJyar46m1qc'
p3868
I2
tp3869
a(g18
S'1DF6XVLhFVv2jPDdePy12xJCeqsUANmSdF'
p3870
I2
tp3871
a(g18
S'1LvzEXgH5iWCL5ien7FG8uzcFaxAYdD4Go'
p3872
I2
tp3873
a(g18
S'1Hew5rUtWAeoiVn8MLoFtiqw2BMhNokzky'
p3874
I2
tp3875
a(g18
S'1Lqaj5QFAy71mTZrUxdK1fKHYkm7BJ7tgC'
p3876
I2
tp3877
a(g18
S'1KoF46E46SFL9qjG7cBT3PrSqyBWsf3J62'
p3878
I2
tp3879
a(g18
S'1Cq8dpuDA9nts9ytvrzSNDC99g3nHDQ2ck'
p3880
I2
tp3881
a(g18
S'1Fd9iXLQXUyGDwGCopPrtJiQkCGJrw2Q2w'
p3882
I2
tp3883
a(g18
S'1EWPxbeJUWQoVprTzD56u2rkMDLnHabBVv'
p3884
I2
tp3885
a(g18
S'1GUQ14PXnjECQRCDKWjA4TbmpqjxfRaV1v'
p3886
I2
tp3887
a(g18
S'161b7j6Gq8CAbhayMZrFimUwNQquEhkvcw'
p3888
I2
tp3889
a(g18
S'1EjgMJK51tGc1f7EDJJfBL9RHvZo5its5s'
p3890
I2
tp3891
a(g18
S'1KRpQY9nUZmQ5uGfMzh9ctwUXUCvvRDA1v'
p3892
I2
tp3893
a(g18
S'16fQaXsoomRFSQbbu4jViErrkxwfErtThS'
p3894
I2
tp3895
a(g18
S'18qC8Rt8K36FSf8HNAhzkmSpxKX9iqdKRb'
p3896
I2
tp3897
a(g18
S'13NchAU84PJbWVehEw9fKoQk1QwPYhJWCG'
p3898
I2
tp3899
a(g18
S'1PEYi16X6afHMPC6teArPXgwRBG71BK46s'
p3900
I2
tp3901
a(g18
S'1Eqy93ck4bmGtbD3iAp2UxSBpvi5KLHgx8'
p3902
I2
tp3903
a(g18
S'1E9YKzDdM45o3fLyM3qobQdrYoUxFKZ7gr'
p3904
I2
tp3905
a(g18
S'17gnaSBG7naSFhs4TjEGqt1YpW3c42UEnZ'
p3906
I2
tp3907
a(g18
S'18xTg9MjMJ617v5VbNDcStqYD3AN1YGx11'
p3908
I2
tp3909
a(g18
S'1CzEy2uTYkA9UxXjunAhuhiX5R5nseJDvm'
p3910
I2
tp3911
a(g18
S'1JnecbEBo4E8VswbYjsZ7fKCEcJLnSnBcE'
p3912
I2
tp3913
a(g18
S'1Aqqjnra5V2pEpK1tznFL96azL1eiNaJrE'
p3914
I2
tp3915
a(g18
S'1JZuseDwGC8Trs5Yv3h6Rj87r3DDkgfTy5'
p3916
I2
tp3917
a(g18
S'1HPkTcBqWxj52JbqS6FUmDaQtLkeopjJLY'
p3918
I2
tp3919
a(g18
S'1AMiHi5XFQ3yJqmX7Pvs1vuhDYUfvMxeXL'
p3920
I2
tp3921
a(g18
S'1F1oA5MjeGSjkhi75WduHinytpikS2ptMn'
p3922
I2
tp3923
a(g18
S'18cSMinz7TVBMytBXEoJf4zkcCZBCi7bCV'
p3924
I2
tp3925
a(g18
S'1F3RPHT6wVfFX62cyvYcsrCJNNz7ox5rPS'
p3926
I2
tp3927
a(g18
S'1HEBXUacLZCKJ2FrSp7oRRQpyLXZqbvDtp'
p3928
I2
tp3929
a(g18
S'1Fb14ruCxbqdDMphnaDL6RZ61pYaxG9yTH'
p3930
I2
tp3931
a(g18
S'1L7dwKRoesiXr2r1WQKajv14nKn8SHofBD'
p3932
I2
tp3933
a(g18
S'15ETrksJUuSyUNwATv7hWrh2vMfXobfaPR'
p3934
I2
tp3935
a(g18
S'1FivuzFL2uBug1tLcYUXC5VbFCbNJub1Pq'
p3936
I2
tp3937
a(g18
S'1Lf2tLuRSLf6yLwss94VAS6HM7VoDAZyGk'
p3938
I2
tp3939
a(g18
S'12FszZERg286Dfz7f4ftHotJEwSbjZm9Fr'
p3940
I2
tp3941
a(g18
S'1KHnRVLaZiVK2pB3KftpPjcU3a76dMAKSM'
p3942
I2
tp3943
a(g18
S'1FH9c4QGQMEZCPVeZKK4Kd9ZhpdS1aG17v'
p3944
I2
tp3945
a(g18
S'1PHMUH6TxH7CqDQAnT3CCN4mTJXkokqL2n'
p3946
I2
tp3947
a(g18
S'1NpXk3zAay93FKFLNKqWd4yMVKmtqHWL8p'
p3948
I2
tp3949
a(g18
S'132esmNn7hXjd81KKQWPPMoyLixpzvWMtx'
p3950
I2
tp3951
a(g18
S'1P99eSob7785o5rpf2KUbx34WHgGv1NcvA'
p3952
I2
tp3953
a(g18
S'16Dt7si58X67SPZF3wEUBJdhMNMw5bW6WG'
p3954
I2
tp3955
a(g18
S'1FXy56mff8bxiBVppBXTSxBALUWCWK9D1X'
p3956
I2
tp3957
a(g18
S'136wC1CB6PfMWuUZfUziJFSfhzBz5qsDfG'
p3958
I2
tp3959
a(g18
S'1NkFnw6tTy6vG7jep3WrmtXBhbaGt8goLX'
p3960
I2
tp3961
a(g18
S'1HgrR9jwmmrH7sDdqhRkhVRZXEWEx65Duo'
p3962
I2
tp3963
a(g18
S'1JXKi4cXoJgNXAWYPMaVmWUVcFLVUTzqc'
p3964
I2
tp3965
a(g18
S'1MMPEnBmiQBPedSHCDgp9WXmZWJWJJUXD9'
p3966
I2
tp3967
a(g18
S'1KmGY3xA5PFLbq3Ye1sqGXYDszSpnq8gJr'
p3968
I2
tp3969
a(g16
S'18SRM2aJyW7Bh4jqSf1V1rzjy3gVwpK9qy'
p3970
I2
tp3971
a(g16
S'12pTBugAGQmfqzWx1rSmUYUzWpF6Hf9dbz'
p3972
I2
tp3973
a(g16
S'1PB679z6c1ebWJZCFEh4ZaUJfbabEz9uXy'
p3974
I2
tp3975
a(g16
S'17dU5ZMbnjJ9e74H6FiJefFhoqtqx7P32i'
p3976
I2
tp3977
a(g16
S'1DpbJGifCvHkh1376R8kM7ftMrXoBF4ogP'
p3978
I2
tp3979
a(g16
S'184JDdBQFu95qPfjE5dvz1RDSimuAAfbts'
p3980
I2
tp3981
a(g16
S'17TZVzADiXoCchN4yTs2KRcwfBMVJ8qcdw'
p3982
I2
tp3983
a(g16
S'1KF6bSqDLXCZu7mk5sYrUpzEwDgfS4jVme'
p3984
I2
tp3985
a(g16
S'18JHBBxRDzejT341MWk6A2vu9k7uJQj1jm'
p3986
I2
tp3987
a(g16
S'17zcEBx2t5jJDf9W6pDs8tkNjxmoGVdLNC'
p3988
I2
tp3989
a(g6
S'1CT6H8BRL9nJdL4Uf3GFXYUH7Bjxk5cTfX'
p3990
I1
tp3991
a(g6
S'1NMyDn8hXUFJLf5NUxYJegHGdfFakVTmCU'
p3992
I1
tp3993
a(g6
S'1A4wedVe8EJkYhCnKnN94iTDkWdVWqp5df'
p3994
I1
tp3995
a(g3994
S'1MC6fnAWYDygiarmJe1AcP1Cc9HHLWZsKD'
p3996
I2
tp3997
a(g3994
S'1EVqhevXaBU3zvDS1w3KhZJtQ4PJU7HR8n'
p3998
I2
tp3999
a(g3994
S'16x6dCH5WKZ25RSp7iTMKcBexnbSXN3dGA'
p4000
I2
tp4001
a(g3994
S'19bryXyWwczic43JEcT2dwjTAe12ABX45U'
p4002
I2
tp4003
a(g3994
S'1Kz6h8UZFHXv7fTx2dswd6tbspxMxz7ZAA'
p4004
I2
tp4005
a(g3994
S'1Mmfe84MEPTHEKKgWseYPFRszcxiEXke4z'
p4006
I2
tp4007
a(g3994
S'1EvRovZAfQXPLRo4ToNYs2jwrsGBr1MdPU'
p4008
I2
tp4009
a(g3994
S'1HiuTkRwZu3AYVkX3sRr6cnqxbzDqrHRTv'
p4010
I2
tp4011
a(g3994
S'1Nw883ZTT62yeXauK2NuG1gAop6fDiTuf5'
p4012
I2
tp4013
a(g3994
S'1P6pg7uexTikMaafiaVJ56SGBtpeWdnZ2F'
p4014
I2
tp4015
a(g3994
S'1FrYvW1TezwwzjcC5M7UsRut4Aiw73tUxe'
p4016
I2
tp4017
a(g3994
S'137WFZoX7f2HkxPbk3Zop49HJEqGMEHTaS'
p4018
I2
tp4019
a(g3994
S'1PiectcdKwRbMKJiphUHuvbF49JhHDu4nY'
p4020
I2
tp4021
a(g3994
S'1975h1c6koTZPTgWe3APCyqakPxV1sqNsK'
p4022
I2
tp4023
a(g3994
S'151f3hHFSb2PJHmePdycbaGB4cSBBBEEKE'
p4024
I2
tp4025
a(g3994
S'1NMyDn8hXUFJLf5NUxYJegHGdfFakVTmCU'
p4026
I2
tp4027
a(g3994
S'15eiCiBNQKVLT3oFw2JV2TAm5NACChJEci'
p4028
I2
tp4029
a(g3992
S'1A4wedVe8EJkYhCnKnN94iTDkWdVWqp5df'
p4030
I2
tp4031
a(g3992
S'15eiCiBNQKVLT3oFw2JV2TAm5NACChJEci'
p4032
I2
tp4033
a(g3992
S'16WgN8QHw69FdjJ2SFA215Zohx7zJG78i6'
p4034
I2
tp4035
a(g3992
S'16Cukn67v6FaQJXVzfy9gfKt1EPrHBiTg6'
p4036
I2
tp4037
a.