(lp0
(V1HWXiebefL1r7T1YKFNtLXfAKJh5Jf2NZR
p1
S'15zpbS96XcvRFnyh4Au9B1YRYK2tqpwLya'
p2
I0
tp3
a(g1
S'1GfwMeCqkUEHb6yvHkcPjns4RJZXTmQzWJ'
p4
I0
tp5
a(g1
S'1MPZsccLaYBh6Vd7LxjbSzbemyE683ueZh'
p6
I0
tp7
a(g1
S'17hxPj28HwZiqJhKPFyAntQKcM3FR9nrUu'
p8
I0
tp9
a(g1
S'17hxPj28HwZiqJhKPFyAntQKcM3FR9nrUu'
p10
I0
tp11
a(g1
S'1Pxs2mRNVVSZJxJBpQXrPUktRWGLpiksW3'
p12
I0
tp13
a(g2
S'1HWXiebefL1r7T1YKFNtLXfAKJh5Jf2NZR'
p14
I1
tp15
a(g2
S'1GfwMeCqkUEHb6yvHkcPjns4RJZXTmQzWJ'
p16
I1
tp17
a(g2
S'1MPZsccLaYBh6Vd7LxjbSzbemyE683ueZh'
p18
I1
tp19
a(g2
S'12hS4Pv6BS1qxUV2fMHozYhvfMsoFrEUsq'
p20
I1
tp21
a(g2
S'1AB6k6jfajmC6Mm2uMn4BZtp99gHJNcJzA'
p22
I1
tp23
a(g2
S'1MPZsccLaYBh6Vd7LxjbSzbemyE683ueZh'
p24
I1
tp25
a(g16
S'1PtH5M2LQEBUWYYLHpQQ6KMp5S9jry9GNU'
p26
I2
tp27
a(g16
S'15aCDyXKWFbVbiRLqHgpNq3AxX4qnK4eZR'
p28
I2
tp29
a(g16
S'1MPZsccLaYBh6Vd7LxjbSzbemyE683ueZh'
p30
I2
tp31
a(g16
S'1HWXiebefL1r7T1YKFNtLXfAKJh5Jf2NZR'
p32
I2
tp33
a(g16
S'15zpbS96XcvRFnyh4Au9B1YRYK2tqpwLya'
p34
I2
tp35
a(g16
S'1MPZsccLaYBh6Vd7LxjbSzbemyE683ueZh'
p36
I2
tp37
a(g20
S'1AB6k6jfajmC6Mm2uMn4BZtp99gHJNcJzA'
p38
I2
tp39
a(g20
S'15zpbS96XcvRFnyh4Au9B1YRYK2tqpwLya'
p40
I2
tp41
a(g20
S'1MPZsccLaYBh6Vd7LxjbSzbemyE683ueZh'
p42
I2
tp43
a(g20
S'1DC654p86Ku47oc5V3EchLV1ch3qavQCXJ'
p44
I2
tp45
a(g20
S'1PffTDCPBFciVTkHsg9Ecjtj63Ed9MFYsp'
p46
I2
tp47
a(g20
S'1PrqDDXzqvPHgkyh4WvFiTeGCmKi46V9M7'
p48
I2
tp49
a(g20
S'1LUiBaZEVo4rgYnhuJwQPMGE4Sa5SBWPzf'
p50
I2
tp51
a(g18
S'18fKapHSuRr8fdxr3eQkpEsE2tUHqwvoy1'
p52
I2
tp53
a(g18
S'18g35fXeL7DCoBxRa1R2GfFoKXST8dNcyb'
p54
I2
tp55
a(g18
S'18cw2KJaXX2DVN8xhMK9rRCeBXRCurGys3'
p56
I2
tp57
a(g18
S'14fWdJFoqHYxprxeHTjj5f6yg2r3iayozz'
p58
I2
tp59
a(g18
S'1GGXZwPjS2RaPGNHm9hdvcza4GRaQf9SJR'
p60
I2
tp61
a(g18
S'1HkPABpi2tU8qngKwFLaVBzAZvD8sX3qgu'
p62
I2
tp63
a(g18
S'1BVGXreEg1Be1hVnYRUyTibRtBh64RD9wJ'
p64
I2
tp65
a(g18
S'1CmacV437CDPRdsDhtE6FTdfQGMMB1RyVN'
p66
I2
tp67
a(g18
S'1FYcLBxMpo1mTayWN4mgy3EHdTcUis6Bfq'
p68
I2
tp69
a(g18
S'19Zj35EcGLZZ4DPFJzRXiZAMVkErvUCfct'
p70
I2
tp71
a(g18
S'1AGPdo7f8wmzaZNKEphvFMtbYhtJoU5DPV'
p72
I2
tp73
a(g18
S'1BVGXreEg1Be1hVnYRUyTibRtBh64RD9wJ'
p74
I2
tp75
a(g18
S'1Fnwc6j2oNYpMqdvgjEYQHURfvkwH4rX6G'
p76
I2
tp77
a(g18
S'1JJtAvSXhVqj66NvNFofJppEbHUuVgj7ES'
p78
I2
tp79
a(g18
S'13PWYXsJjYu9Sb7fVzAPzvBapEjZBnFpu1'
p80
I2
tp81
a(g18
S'1Br8YgvcitcCZXYwrBs6jg1EkvY6Shc53z'
p82
I2
tp83
a(g18
S'1MzLnDb9fZEzvidtcQmZ8Dw6vqetH1ez9'
p84
I2
tp85
a(g18
S'19Zj35EcGLZZ4DPFJzRXiZAMVkErvUCfct'
p86
I2
tp87
a(g18
S'1JSNUBsU9T84QPQjyzAexkSRLRxjLskped'
p88
I2
tp89
a(g18
S'1nJwFyRmAr7cRjKWRhv94zcq7TKk7J9n9'
p90
I2
tp91
a(g18
S'1MzLnDb9fZEzvidtcQmZ8Dw6vqetH1ez9'
p92
I2
tp93
a(g18
S'166WiqyEYXF331fjtcsDmUfNuwR2NBYtgG'
p94
I2
tp95
a(g18
S'1FQimrDBBCAfezJZ3KPeuUfxhQDqtyC7gb'
p96
I2
tp97
a(g18
S'1JSNUBsU9T84QPQjyzAexkSRLRxjLskped'
p98
I2
tp99
a(g18
S'15PVg3Avv8i9SCUCUMhAB76irgRWLDc4uG'
p100
I2
tp101
a(g18
S'1BMF5SLYo2w7MMs1s1oP1gjNwVr3firnth'
p102
I2
tp103
a(g18
S'166WiqyEYXF331fjtcsDmUfNuwR2NBYtgG'
p104
I2
tp105
a(g18
S'1Gfh4RNiDkbAduNJtstdii4FaG6sQRMF9s'
p106
I2
tp107
a(g18
S'1HQYp5HDCwgHHraGfT8SuM5yi4uQDp3PUz'
p108
I2
tp109
a(g18
S'15PVg3Avv8i9SCUCUMhAB76irgRWLDc4uG'
p110
I2
tp111
a(g18
S'1BPNP1erFx2EkyTZUobQnF7CT2FQSPiZ9q'
p112
I2
tp113
a(g18
S'152nXHegGggoekAYsmymT7ymXgAGyyCL1Z'
p114
I2
tp115
a(g18
S'1HQYp5HDCwgHHraGfT8SuM5yi4uQDp3PUz'
p116
I2
tp117
a(g18
S'1EeeuPJfHgpw56sGjGBeZTqfqzDV5teKti'
p118
I2
tp119
a(g18
S'15E6YPrwM5pPydfvhpsYmi7MYRYpVBSdvm'
p120
I2
tp121
a(g18
S'1BPNP1erFx2EkyTZUobQnF7CT2FQSPiZ9q'
p122
I2
tp123
a(g18
S'1LoR6SWUoGmWYDP8gs4UQtApAeRUgicL4W'
p124
I2
tp125
a(g18
S'1JZZNiN3ZTiAhmBXRvangKDne9vP3zkwUD'
p126
I2
tp127
a(g18
S'15E6YPrwM5pPydfvhpsYmi7MYRYpVBSdvm'
p128
I2
tp129
a(g18
S'1KXe6gW13zRANacV9XTahYKq8XZ8rAckYS'
p130
I2
tp131
a(g18
S'14yk7Aw7EZ4yNoRHMnTPfuauNenxadsWLy'
p132
I2
tp133
a(g18
S'1LoR6SWUoGmWYDP8gs4UQtApAeRUgicL4W'
p134
I2
tp135
a(g18
S'1NqMFCqS2FXXYiKxfwGXhiFXGTR7eW4gKS'
p136
I2
tp137
a(g18
S'1DWmKJpKKAb8BaaCeYmHdZ8qNPT64vfAva'
p138
I2
tp139
a(g18
S'1KXe6gW13zRANacV9XTahYKq8XZ8rAckYS'
p140
I2
tp141
a(g18
S'16STKEHVkFUimTnqghd7G49XUgzvNqX3cn'
p142
I2
tp143
a(g18
S'14ouPE7phSoYyzaBSAKa8gr939jAbEpyk7'
p144
I2
tp145
a(g18
S'1DWmKJpKKAb8BaaCeYmHdZ8qNPT64vfAva'
p146
I2
tp147
a(g18
S'1CiWGbc8K9C2mG2D89DNKRZsXYbSJuVhbh'
p148
I2
tp149
a(g18
S'14ouPE7phSoYyzaBSAKa8gr939jAbEpyk7'
p150
I2
tp151
a(g18
S'12X8a71NqDbDmVyHi9B1N1b3DBAYH5453m'
p152
I2
tp153
a(g18
S'1B3wUEQmu8GJm4pV8BPbQzwYs85yPW7BbM'
p154
I2
tp155
a(g18
S'1CiWGbc8K9C2mG2D89DNKRZsXYbSJuVhbh'
p156
I2
tp157
a(g18
S'1PpYquvqneF47MuJsrBtTXi5cN7vNGeU3C'
p158
I2
tp159
a(g18
S'19oq1MHBhBXAdKEHVWrMtN244mZ9Tcwr6K'
p160
I2
tp161
a(g18
S'1LYQXoDR31xGPWhWi8tP9bc3K4HH16CvAm'
p162
I2
tp163
a(g18
S'1PCNRYycB15oh9L5pD7BHVd2axyZmzwfNJ'
p164
I2
tp165
a(g18
S'17JUQU1voxacc6m9Xu1sJtaKhuUCAVjjS7'
p166
I2
tp167
a(g18
S'19ApNhxSXKUrhNpoPyFveDq7Y7HUyC4qgs'
p168
I2
tp169
a(g18
S'1MPDFQZekoGgtK8PX6i6xsLQfMG7jXk2nC'
p170
I2
tp171
a(g18
S'1Q9PyjqYASzHde9mzcrKXeSL6czgwQEfY4'
p172
I2
tp173
a(g18
S'1Dx2Epkfpnqfv85rupSh92JpXVEet5YxBa'
p174
I2
tp175
a(g18
S'1433JRxbQLWPoHZs9mzoeCYpq9MEEgWH6g'
p176
I2
tp177
a(g18
S'1HcXMN9aLvvgNsA6VfxdMQRB33QvgBFtyg'
p178
I2
tp179
a(g18
S'18mdiWB5xCyUWJPeFWvUAgw5jbdDjSfcjB'
p180
I2
tp181
a(g18
S'1MKX4SNfsaR2UwJfrE89e5PhvcCVJdPJQD'
p182
I2
tp183
a(g18
S'1QCtvKsS9WT1QZZ1e3baQDbDBmgKrLg1XB'
p184
I2
tp185
a(g18
S'1HP9bBuGAPBepwZdXi6QBkh5jS7amQ7Jmv'
p186
I2
tp187
a(g18
S'1EU8RaWaMFQYk6n3jtwjdYRak2nKpmURdD'
p188
I2
tp189
a(g18
S'1P9VxBkT6R1Evd1rzfhRxdYV72D3BcVwJ6'
p190
I2
tp191
a(g18
S'1LkVt3JtSmZiTDrinmBbYSEgciw98ngYx1'
p192
I2
tp193
a(g18
S'1Muk74Xx1Xi5rCyUQPfor29SUJsYCAJNQ2'
p194
I2
tp195
a(g18
S'1ERFCNpuomRHdWiBW5zmohhHCvYdh8w7Vt'
p196
I2
tp197
a(g18
S'1NFFC96qoGomNfyXKGiooxfBuurK6PhAVG'
p198
I2
tp199
a(g18
S'1JtctqyaFrSUw7pQEU7n1Ejb4gCW77qbq7'
p200
I2
tp201
a(g18
S'1JxGkkXNPWUiKMZDJZMaH75onoW8p1brUJ'
p202
I2
tp203
a(g18
S'1hSN6Vz698nGcGj6dotcEzk6KscR1Dbq6'
p204
I2
tp205
a(g18
S'1Hm8msEnQKCpUfaCLqSBJkRCcbbFYFDUcq'
p206
I2
tp207
a(g18
S'1LNFWmj6WKM1h39nEGKnjdyfHGXgNRyHSz'
p208
I2
tp209
a(g18
S'1EuNc3rFNETsD6XyURRTwyvsymVKNmWHAu'
p210
I2
tp211
a(g18
S'1C39nfKCpX4QzD2LGe64Ej99jF6UUkQcG'
p212
I2
tp213
a(g18
S'1PQi4P4Q3VgZHrHiVjKmxZtoRLgiNbFmcn'
p214
I2
tp215
a(g18
S'12TVuVkRDvnP5vycJZWR84YLNJQfHwcPuN'
p216
I2
tp217
a(g18
S'14oY49UtRu6wZY2HmzaM4uLfabCrG9pFMh'
p218
I2
tp219
a(g18
S'1AqwMuKJKxmRn8UrQsT3bUnbpJVgaNL9sF'
p220
I2
tp221
a(g18
S'1Muk74Xx1Xi5rCyUQPfor29SUJsYCAJNQ2'
p222
I2
tp223
a(g18
S'14sF81WemisnoYv7oSkc4cL2o9gmAV5ixy'
p224
I2
tp225
a(g18
S'17rEVACMMK1bM3TsjWDSFL9RZJ3vhYKRNo'
p226
I2
tp227
a(g18
S'127qiLbD8DF4EkXZYCe7YKQk4dwSkQ4N2Z'
p228
I2
tp229
a(g18
S'1AddDe8oazYwqKZHutgsgL2RCap3Kgqq4U'
p230
I2
tp231
a(g18
S'1KGX5HTEh29bBeSkrzZdzbjL1nC4afCW9p'
p232
I2
tp233
a(g18
S'16aX9Y4aF97wEfGj8adK6EeHRA2DzwUS6J'
p234
I2
tp235
a(g18
S'14oY49UtRu6wZY2HmzaM4uLfabCrG9pFMh'
p236
I2
tp237
a(g18
S'1Fq8qXYW69EEjE41jHanYdVsxeNhExNTaT'
p238
I2
tp239
a(g18
S'1BaMYyPz4CqrakpDaR5WpFqqUy6UmA2pHv'
p240
I2
tp241
a(g18
S'16aX9Y4aF97wEfGj8adK6EeHRA2DzwUS6J'
p242
I2
tp243
a(g18
S'1NQejp1aHoETQe2zNv4hicy4FRmsdc7DPQ'
p244
I2
tp245
a(g18
S'1C3EqPYPWtG5Md9m7A9XBBqkovqEGvvy8T'
p246
I2
tp247
a(g18
S'1BHQ8ZdVkYVAhBjnHbva5iyaiT5RCkL3iK'
p248
I2
tp249
a(g18
S'1BDucQXAM6kEuM3JSXRkjZVcNG7ifUxpi1'
p250
I2
tp251
a(g18
S'1Aj9HWZL4Dy3twK8BjhySFZv6MAXwfXgo2'
p252
I2
tp253
a(g18
S'1MPDFQZekoGgtK8PX6i6xsLQfMG7jXk2nC'
p254
I2
tp255
a(g18
S'1DNZVjgRAhSbMMC5a17vJpRT4CQExrQkLN'
p256
I2
tp257
a(g18
S'1ACLPznYLCPyh5uKbvwyNEgbAe261WwxvF'
p258
I2
tp259
a(g18
S'1AoQk3Neu7ttvaf6XKFMjNyUMBoKBgFJxk'
p260
I2
tp261
a(g18
S'17artq84hyEmmD4G8jV2AS5Rm2dhEowyT'
p262
I2
tp263
a(g18
S'15RjKKF3kB7KgWDv1nTYEH5MtiUtNRLDPB'
p264
I2
tp265
a(g18
S'1Fq8qXYW69EEjE41jHanYdVsxeNhExNTaT'
p266
I2
tp267
a(g18
S'1HHbcTL6J2adwsn6uD9GTvX9FR1fxfcziX'
p268
I2
tp269
a(g18
S'1ARJQN2Vto2BU6uSztiGhvZRpirDDBdpLj'
p270
I2
tp271
a(g18
S'15RjKKF3kB7KgWDv1nTYEH5MtiUtNRLDPB'
p272
I2
tp273
a(g18
S'1C78UbFzRbo23UQrHfU55yNWi7w9H6vPP8'
p274
I2
tp275
a(g18
S'1Co2keCPYTbToxYeXVnYDx3fHq46Jb4awY'
p276
I2
tp277
a(g18
S'1HHbcTL6J2adwsn6uD9GTvX9FR1fxfcziX'
p278
I2
tp279
a(g18
S'141q6BDMVJha38ow6Ttv27zwz89pC3CG15'
p280
I2
tp281
a(g18
S'1q1VSzmU7hjW4XYE3BCx1ybzoEJNejCCz'
p282
I2
tp283
a(g18
S'1C78UbFzRbo23UQrHfU55yNWi7w9H6vPP8'
p284
I2
tp285
a(g18
S'13FwbSoszH6QjivSAE5frBeN9rJGqiH15S'
p286
I2
tp287
a(g18
S'1KeQyMkjesZaZ4xNDZSUd1S1RCvoBZXki3'
p288
I2
tp289
a(g18
S'1DfUyY7WEs8pgaqnbryZ1UzwCRqKRTVEAp'
p290
I2
tp291
a(g18
S'141q6BDMVJha38ow6Ttv27zwz89pC3CG15'
p292
I2
tp293
a(g18
S'19yWrYBtfqC9nNjnRxTv6aVDj6k1FX5iwf'
p294
I2
tp295
a(g18
S'1CJq7i5eCZacDUh2EVZQUhhSVdQZnnhTxR'
p296
I2
tp297
a(g18
S'13FwbSoszH6QjivSAE5frBeN9rJGqiH15S'
p298
I2
tp299
a(g18
S'1w5psTFzqcXK5qnDmK2fEjgvKtNY1nZSB'
p300
I2
tp301
a(g18
S'1HP9bBuGAPBepwZdXi6QBkh5jS7amQ7Jmv'
p302
I2
tp303
a(g18
S'1DcENToxYgMi2wqW2dCr7VxgbZLecaELH1'
p304
I2
tp305
a(g18
S'1MpxXLYZ98xdwZQ1XNUJz31sAjCdcXmVx'
p306
I2
tp307
a(g18
S'19yWrYBtfqC9nNjnRxTv6aVDj6k1FX5iwf'
p308
I2
tp309
a(g18
S'1EFQMTTE6fqUX8WPLB9pRiVcFqZMmN8rDs'
p310
I2
tp311
a(g18
S'1HmbWdgAJw3XT3rreTozc1YqTkbCeUnxEW'
p312
I2
tp313
a(g18
S'1DcENToxYgMi2wqW2dCr7VxgbZLecaELH1'
p314
I2
tp315
a(g18
S'174BmLF6fgRp2wubsqQkJG7T4h9GMNC242'
p316
I2
tp317
a(g18
S'19A51tjqDhEuDZoFZ8E4kRQJwqvCW1Wy1e'
p318
I2
tp319
a(g18
S'1EFQMTTE6fqUX8WPLB9pRiVcFqZMmN8rDs'
p320
I2
tp321
a(g18
S'12ZF1CsM1KwsDrimgKNGVik7xjSVxRyBts'
p322
I2
tp323
a(g18
S'16Wss8xkV7Ty9ni2Pc1QiaRiWPSsiXXwtj'
p324
I2
tp325
a(g18
S'174BmLF6fgRp2wubsqQkJG7T4h9GMNC242'
p326
I2
tp327
a(g22
S'12hS4Pv6BS1qxUV2fMHozYhvfMsoFrEUsq'
p328
I2
tp329
a(g22
S'15zpbS96XcvRFnyh4Au9B1YRYK2tqpwLya'
p330
I2
tp331
a(g22
S'1MPZsccLaYBh6Vd7LxjbSzbemyE683ueZh'
p332
I2
tp333
a(g22
S'1Mr3kEFgjNPn7iFMtUFCt4dBXdFZfX6AfU'
p334
I2
tp335
a(g22
S'15EAyx6ZXgsDRQ4y9yhaCrdkQiuTx8ej57'
p336
I2
tp337
a(g22
S'1MPZsccLaYBh6Vd7LxjbSzbemyE683ueZh'
p338
I2
tp339
a(g8
S'17h5HfJ9MD3TgRJ7PRxSN3Zp5JevoCunha'
p340
I1
tp341
a(g8
S'1Pxs2mRNVVSZJxJBpQXrPUktRWGLpiksW3'
p342
I1
tp343
a(g8
S'1NRDCwvi1766X9Yqvjj838YExrRh1MH22r'
p344
I1
tp345
a(g8
S'1EE9hUft8FegFposWH7UiXGZLUNSAGzP1m'
p346
I1
tp347
a(g8
S'1FyZU66p35h2gJ5AYeksV8qkxGJApv9X1V'
p348
I1
tp349
a(g8
S'1Exj1gRXo64rD4ztTrR7mPJCpvB5jYu7PL'
p350
I1
tp351
a(g8
S'1EFq2qGyHNTKKT6Kot9eX8yaZZR3cpWoHY'
p352
I1
tp353
a(g8
S'1NqDkWttEKks5ZxrFKZXdTnrBn8iZEReux'
p354
I1
tp355
a(g8
S'19eZH8yD5Ln9mtvytinZxZYZewigaeA6wj'
p356
I1
tp357
a(g8
S'171JkkpM8GH7gznpyfoUHkvcpCmrGdTte7'
p358
I1
tp359
a(g8
S'158f4APDxW7JAZEbZsQeaaeFBxT4EYVma4'
p360
I1
tp361
a(g8
S'12Hhb5Qzpdp2dmHoZUrQELHGDdZs2JaQeE'
p362
I1
tp363
a(g8
S'1DQHAETnjPmgcMPTw9AntvXLrHZCwwTS2H'
p364
I1
tp365
a(g8
S'1Pxs2mRNVVSZJxJBpQXrPUktRWGLpiksW3'
p366
I1
tp367
a(g8
S'1HWXiebefL1r7T1YKFNtLXfAKJh5Jf2NZR'
p368
I1
tp369
a(g8
S'1G8WXXZtyT4YDrR8E78p1mDuevs7uaiHxM'
p370
I1
tp371
a(g8
S'16ERiRSiK6RYoxHADbtSq1WhR7Fzdewp3e'
p372
I1
tp373
a(g8
S'1FPMDkJMsWD6gdPqYssRihSx9yasU82rew'
p374
I1
tp375
a(g8
S'1Dpc65TxmnqDGtqpJAnX9edAKixDoipDKS'
p376
I1
tp377
a(g8
S'17ZNsUz2tF1yahKLhZ8akafVYU5YtFRG9i'
p378
I1
tp379
a(g8
S'19Cr2u6Jm72ZJEToePHVLDPC7EsxaQXYrJ'
p380
I1
tp381
a(g370
S'16ERiRSiK6RYoxHADbtSq1WhR7Fzdewp3e'
p382
I2
tp383
a(g370
S'1FPMDkJMsWD6gdPqYssRihSx9yasU82rew'
p384
I2
tp385
a(g370
S'17hxPj28HwZiqJhKPFyAntQKcM3FR9nrUu'
p386
I2
tp387
a(g370
S'19hAtnkq45DzaJ4vZZdzAKGYtVEuRAbt1q'
p388
I2
tp389
a(g370
S'1CDemkKBK7WQoMNV3qHhtL7FR7FaVBeD8V'
p390
I2
tp391
a(g370
S'1AwXVftCCofcAc8qWYNimj8iBtf9RbNQVR'
p392
I2
tp393
a(g370
S'12d91LPS9igfNhUHyFKQHXWAoEPVZ4B9fv'
p394
I2
tp395
a(g370
S'1GgDyMqhH7M9HEegpWV2n9NkQrCvunY5px'
p396
I2
tp397
a(g374
S'19xAAG2FmVPwE6t2uvoorHPW1fsRMo5jk8'
p398
I2
tp399
a(g374
S'1N4temXsYx7NPUCAExULuPDtFQ17ahVrwL'
p400
I2
tp401
a(g374
S'1GHtAJUxz7TVKgE458AsDq8SKEKpjFpayh'
p402
I2
tp403
a(g374
S'1C4P7ffzVp2mHz7f8PzRDk6DREgSnjicBi'
p404
I2
tp405
a(g374
S'1MMbzMVLEj4UJ8CLEFxUWYZVg1BtArYqB2'
p406
I2
tp407
a(g374
S'16FW5ewrUcYXuAYt6WkoeBi5BNrGBsyk3A'
p408
I2
tp409
a(g374
S'1DvGEWL2tuQ1QXP3kmyxUU4W8vWq3EHPaK'
p410
I2
tp411
a(g374
S'1AW9DvFXifcuFdu7KVcQXLTsnNzyWegMR8'
p412
I2
tp413
a(g374
S'1G8WXXZtyT4YDrR8E78p1mDuevs7uaiHxM'
p414
I2
tp415
a(g374
S'16ERiRSiK6RYoxHADbtSq1WhR7Fzdewp3e'
p416
I2
tp417
a(g374
S'17hxPj28HwZiqJhKPFyAntQKcM3FR9nrUu'
p418
I2
tp419
a(g360
S'14kMrGTDHNHAMP8zwxbZCBhMdq1WWXFiGD'
p420
I2
tp421
a(g360
S'124fyw99e3VC9uWZTrBtKQ19SGtbwaJT2A'
p422
I2
tp423
a(g360
S'1Q47f2ELDbhVsVLbN99SBezsKrorqyHnfJ'
p424
I2
tp425
a(g360
S'1LoQKZjpNfmrnafhpitxkK2tDzkucJekXQ'
p426
I2
tp427
a(g360
S'1FyZU66p35h2gJ5AYeksV8qkxGJApv9X1V'
p428
I2
tp429
a(g360
S'1Exj1gRXo64rD4ztTrR7mPJCpvB5jYu7PL'
p430
I2
tp431
a(g360
S'1EFq2qGyHNTKKT6Kot9eX8yaZZR3cpWoHY'
p432
I2
tp433
a(g360
S'1NqDkWttEKks5ZxrFKZXdTnrBn8iZEReux'
p434
I2
tp435
a(g360
S'19eZH8yD5Ln9mtvytinZxZYZewigaeA6wj'
p436
I2
tp437
a(g360
S'171JkkpM8GH7gznpyfoUHkvcpCmrGdTte7'
p438
I2
tp439
a(g360
S'12Hhb5Qzpdp2dmHoZUrQELHGDdZs2JaQeE'
p440
I2
tp441
a(g360
S'1DQHAETnjPmgcMPTw9AntvXLrHZCwwTS2H'
p442
I2
tp443
a(g360
S'17hxPj28HwZiqJhKPFyAntQKcM3FR9nrUu'
p444
I2
tp445
a(g360
S'14jCU7EvNT87VTmV8kqcPS9BS3uoWn9P2w'
p446
I2
tp447
a(g360
S'1NDoN3dE17STXwvu8CGa6jL1EFuZRKpubG'
p448
I2
tp449
a(g360
S'154GcgUBTEBaUNqn4N816bgXYf1FTbJmBz'
p450
I2
tp451
a(g360
S'1CT6H8BRL9nJdL4Uf3GFXYUH7Bjxk5cTfX'
p452
I2
tp453
a(g360
S'17TZVzADiXoCchN4yTs2KRcwfBMVJ8qcdw'
p454
I2
tp455
a(g350
S'1FyZU66p35h2gJ5AYeksV8qkxGJApv9X1V'
p456
I2
tp457
a(g350
S'1EFq2qGyHNTKKT6Kot9eX8yaZZR3cpWoHY'
p458
I2
tp459
a(g350
S'1NqDkWttEKks5ZxrFKZXdTnrBn8iZEReux'
p460
I2
tp461
a(g350
S'19eZH8yD5Ln9mtvytinZxZYZewigaeA6wj'
p462
I2
tp463
a(g350
S'171JkkpM8GH7gznpyfoUHkvcpCmrGdTte7'
p464
I2
tp465
a(g350
S'158f4APDxW7JAZEbZsQeaaeFBxT4EYVma4'
p466
I2
tp467
a(g350
S'12Hhb5Qzpdp2dmHoZUrQELHGDdZs2JaQeE'
p468
I2
tp469
a(g350
S'1DQHAETnjPmgcMPTw9AntvXLrHZCwwTS2H'
p470
I2
tp471
a(g350
S'17hxPj28HwZiqJhKPFyAntQKcM3FR9nrUu'
p472
I2
tp473
a(g350
S'17kufG8AWwYa6gpVt7yjDeWu6qvSbMGMTU'
p474
I2
tp475
a(g350
S'18a66RVEUzp5BbBDQi8wtsiCkT4EFDjHTA'
p476
I2
tp477
a(g350
S'1NVELpF5UVZB8pPp4wZzed4s5249qeMhDr'
p478
I2
tp479
a(g350
S'16p9m7YQNjYEMTbe77WrgozXHz14T87F2J'
p480
I2
tp481
a(g348
S'1BM1ERztxniVppLGWUEFBPsQ47LRKYp9FN'
p482
I2
tp483
a(g348
S'1YdeTRpA4gzHM3S6mPcpofHiSC2vmSXTn'
p484
I2
tp485
a(g348
S'171vqv59TUcgjBPHhZuBqsRjhSjSbtNJ1m'
p486
I2
tp487
a(g348
S'16cYV41SDbZxnk1dPocG8Knecouk6trwao'
p488
I2
tp489
a(g348
S'129QQFgYHs6PLfT7mPvpi1YyD6t6Ky4yLt'
p490
I2
tp491
a(g348
S'1Exj1gRXo64rD4ztTrR7mPJCpvB5jYu7PL'
p492
I2
tp493
a(g348
S'1EFq2qGyHNTKKT6Kot9eX8yaZZR3cpWoHY'
p494
I2
tp495
a(g348
S'1NqDkWttEKks5ZxrFKZXdTnrBn8iZEReux'
p496
I2
tp497
a(g348
S'19eZH8yD5Ln9mtvytinZxZYZewigaeA6wj'
p498
I2
tp499
a(g348
S'171JkkpM8GH7gznpyfoUHkvcpCmrGdTte7'
p500
I2
tp501
a(g348
S'158f4APDxW7JAZEbZsQeaaeFBxT4EYVma4'
p502
I2
tp503
a(g348
S'12Hhb5Qzpdp2dmHoZUrQELHGDdZs2JaQeE'
p504
I2
tp505
a(g348
S'1DQHAETnjPmgcMPTw9AntvXLrHZCwwTS2H'
p506
I2
tp507
a(g348
S'17hxPj28HwZiqJhKPFyAntQKcM3FR9nrUu'
p508
I2
tp509
a(g348
S'1CsChm5ZDLK7PiWgAss2u5Bknmbwb1r3Gy'
p510
I2
tp511
a(g348
S'1ELNCTGb4Jqmif1J3XteyyQFWynL3rQQBH'
p512
I2
tp513
a(g348
S'15R4vowQsGbLpWYtFuRfQGZ8kjBsvn7Hpx'
p514
I2
tp515
a(g372
S'1G8WXXZtyT4YDrR8E78p1mDuevs7uaiHxM'
p516
I2
tp517
a(g372
S'1FPMDkJMsWD6gdPqYssRihSx9yasU82rew'
p518
I2
tp519
a(g372
S'17hxPj28HwZiqJhKPFyAntQKcM3FR9nrUu'
p520
I2
tp521
a(g372
S'1AGVcZvfaz2c2PVMLyLhLzEYiXwk4qu3F1'
p522
I2
tp523
a(g372
S'14EnBufUw9aZA3xtXBaxemg1f6gioMxgqk'
p524
I2
tp525
a(g372
S'1KsdRwtGTm9XCFD7rL9K5Bm8DXHm6mjKbx'
p526
I2
tp527
a(g372
S'183hCziJZ9cXmixkMN1z5mcX2qzEMohybq'
p528
I2
tp529
a(g352
S'1FyZU66p35h2gJ5AYeksV8qkxGJApv9X1V'
p530
I2
tp531
a(g352
S'1Exj1gRXo64rD4ztTrR7mPJCpvB5jYu7PL'
p532
I2
tp533
a(g352
S'1NqDkWttEKks5ZxrFKZXdTnrBn8iZEReux'
p534
I2
tp535
a(g352
S'19eZH8yD5Ln9mtvytinZxZYZewigaeA6wj'
p536
I2
tp537
a(g352
S'171JkkpM8GH7gznpyfoUHkvcpCmrGdTte7'
p538
I2
tp539
a(g352
S'158f4APDxW7JAZEbZsQeaaeFBxT4EYVma4'
p540
I2
tp541
a(g352
S'12Hhb5Qzpdp2dmHoZUrQELHGDdZs2JaQeE'
p542
I2
tp543
a(g352
S'1DQHAETnjPmgcMPTw9AntvXLrHZCwwTS2H'
p544
I2
tp545
a(g352
S'17hxPj28HwZiqJhKPFyAntQKcM3FR9nrUu'
p546
I2
tp547
a(g352
S'1D6jYmbMGJAS5tdpcn5Y7TbBAZ8SUFotYT'
p548
I2
tp549
a(g352
S'17WAiEeoNUo4MuMjXm37t56Z2VcwHJ5ALE'
p550
I2
tp551
a(g352
S'1PyJRX38BZEiXAai1M1L7Yj5dh1474Zg89'
p552
I2
tp553
a(g352
S'1FcvDUJyWvmCtoWywKCgC9RLn5L4vjXCB'
p554
I2
tp555
a(g352
S'1MX4UXUE12M5y3BEWS7BsX1ERihpC3n7mn'
p556
I2
tp557
a(g352
S'12HeMbeihR32s3Si6H6To3T6tJH7NfwacJ'
p558
I2
tp559
a(g352
S'12Xk4HqEB88iqoNLq6H6Y5Jtw14J1EBCSP'
p560
I2
tp561
a(g362
S'1FyZU66p35h2gJ5AYeksV8qkxGJApv9X1V'
p562
I2
tp563
a(g362
S'1Exj1gRXo64rD4ztTrR7mPJCpvB5jYu7PL'
p564
I2
tp565
a(g362
S'1EFq2qGyHNTKKT6Kot9eX8yaZZR3cpWoHY'
p566
I2
tp567
a(g362
S'1NqDkWttEKks5ZxrFKZXdTnrBn8iZEReux'
p568
I2
tp569
a(g362
S'19eZH8yD5Ln9mtvytinZxZYZewigaeA6wj'
p570
I2
tp571
a(g362
S'171JkkpM8GH7gznpyfoUHkvcpCmrGdTte7'
p572
I2
tp573
a(g362
S'158f4APDxW7JAZEbZsQeaaeFBxT4EYVma4'
p574
I2
tp575
a(g362
S'1DQHAETnjPmgcMPTw9AntvXLrHZCwwTS2H'
p576
I2
tp577
a(g362
S'17hxPj28HwZiqJhKPFyAntQKcM3FR9nrUu'
p578
I2
tp579
a(g362
S'167uFCHUxxfCv2xeEF9Ui5mrkkxFLhMb6H'
p580
I2
tp581
a(g362
S'1Q2jLEG1Qfjrwt78TgaeBcm7Xa5gorif4z'
p582
I2
tp583
a(g362
S'16CAZDmkLKgDkoCrK5xr9HFdqyRDFJsjRM'
p584
I2
tp585
a(g362
S'1MTQHR4GnmK9xXK15cB3pLzmy1HdDSjAfn'
p586
I2
tp587
a(g362
S'1FAxexgke4uC9AnjtUY2M4bQhmRJDgxY2T'
p588
I2
tp589
a(g362
S'18fDKiyErt2hPoNUWcrGuSGJcRKLzSyXmc'
p590
I2
tp591
a(g346
S'183TYU4CVQK2ETqNXTpGXy9CBdt29kALsy'
p592
I2
tp593
a(g346
S'183TYU4CVQK2ETqNXTpGXy9CBdt29kALsy'
p594
I2
tp595
a(g346
S'1M3q1xX5UHQ5X3raTGA5WEvh8UJGkyFKw3'
p596
I2
tp597
a(g346
S'1DY5os8jz8CHLbrNb6bxCxXpj2FEP6h43k'
p598
I2
tp599
a(g346
S'1ByPz4xDTr6JnC28dSkNwUVptpw2ZCn62u'
p600
I2
tp601
a(g346
S'1P3yWNJvFTrbNbwBdqvckKtREv3UEYaw4W'
p602
I2
tp603
a(g346
S'12gVXdnkV2CTXRdicnB6VdQrnKyg8e7Kb5'
p604
I2
tp605
a(g346
S'18LK8a2pZUkzJZ48z4X9YHAVoiBD3Q82ch'
p606
I2
tp607
a(g346
S'1JuN76SU4Yf2U7L7ua2SZnKyvTJ1nncorg'
p608
I2
tp609
a(g346
S'1NW5XGYM6y7UVRjT9jFNi5L92fpvg8HZZD'
p610
I2
tp611
a(g346
S'17EAhGxPUp16UjHG3E9xnzwTWEBk929mxA'
p612
I2
tp613
a(g346
S'1N5C16Dn9QEsXY8f4cK6iyvq6kkbtyUy63'
p614
I2
tp615
a(g346
S'1FD5AppbQSiJ85q1YLEtMFpe88sLLTxQDd'
p616
I2
tp617
a(g346
S'19P5vv3wtjv3oArGJVMmQuMQcff5hQHTnF'
p618
I2
tp619
a(g346
S'1VH7knyMWTE7oH3g85bJ1ypTBd53mzXY4'
p620
I2
tp621
a(g346
S'1HFGu8mTpVFsNGS7MUvLHsNVBKV5pKxRc9'
p622
I2
tp623
a(g346
S'197VG8P8gi9UPGswE7R9tZxTrFSWjwNVGo'
p624
I2
tp625
a(g346
S'1KgJ1p7qqSnQa53Qx5Bg9JNe3B48ryLRmQ'
p626
I2
tp627
a(g346
S'1F5e3xXUWn5GgRmPxntgbr2nJ3CseJXvJ'
p628
I2
tp629
a(g346
S'1QCxrBN7yCo3gYWHSo2N59KDUS2cNMzVrd'
p630
I2
tp631
a(g346
S'12kyaFpXhatp9e6iT4HAVzFpfF8qV3FZn9'
p632
I2
tp633
a(g346
S'1M2KBWvjqiLkRugetzLcQBGQRK3ia3xMPo'
p634
I2
tp635
a(g346
S'1PPtsTFQvrYmqMrXpwXWaRnteX45HbRoFW'
p636
I2
tp637
a(g346
S'1Ckkbssw3JnorPL3M7mywu1Ec5KMTHqT2c'
p638
I2
tp639
a(g346
S'1JatQAt2c97f1Eacm5p5SxKDYYWxQxUbkc'
p640
I2
tp641
a(g346
S'128heYTtvtWdUGuuPsFAjFHDg7GJ6M8DqX'
p642
I2
tp643
a(g346
S'17hxPj28HwZiqJhKPFyAntQKcM3FR9nrUu'
p644
I2
tp645
a(g346
S'17h5HfJ9MD3TgRJ7PRxSN3Zp5JevoCunha'
p646
I2
tp647
a(g346
S'1Pxs2mRNVVSZJxJBpQXrPUktRWGLpiksW3'
p648
I2
tp649
a(g346
S'17hxPj28HwZiqJhKPFyAntQKcM3FR9nrUu'
p650
I2
tp651
a(g346
S'1NRDCwvi1766X9Yqvjj838YExrRh1MH22r'
p652
I2
tp653
a(g346
S'1C4ugY6ar28csZ3PCWFE8YMjACy3qvvaXf'
p654
I2
tp655
a(g346
S'17h5HfJ9MD3TgRJ7PRxSN3Zp5JevoCunha'
p656
I2
tp657
a(g346
S'12LnE5QSfRBtHTKXZRCDyN1jyg6uUBE6JD'
p658
I2
tp659
a(g346
S'1F6RntcChokEPcd9FYiqdtRWAgC2eZznt1'
p660
I2
tp661
a(g376
S'17hxPj28HwZiqJhKPFyAntQKcM3FR9nrUu'
p662
I2
tp663
a(g376
S'1NYWgzUox6kACpmyAQrrHz6eULJGeNiL2o'
p664
I2
tp665
a(g376
S'1NV2dsPYd2snoASa3omhvJpEjGXbTMzQLS'
p666
I2
tp667
a(g376
S'13Na7Yb1dqfxM2mV1nNiLtQUu6FZYcYbG1'
p668
I2
tp669
a(g376
S'13Na7Yb1dqfxM2mV1nNiLtQUu6FZYcYbG1'
p670
I2
tp671
a(g376
S'19JrfLYGDcnX464acHpe1RXQNX7JoPaZDE'
p672
I2
tp673
a(g376
S'19JrfLYGDcnX464acHpe1RXQNX7JoPaZDE'
p674
I2
tp675
a(g376
S'17HxcdTPky4rDqfZ52FdM8aBdiPZCkDern'
p676
I2
tp677
a(g376
S'1LgmaTUxiVWqfdeV8rwN2GKan6LYofiN9C'
p678
I2
tp679
a(g376
S'1GA8mTEn9XgP6dSzCvRw5JbvgsyxSmAHyC'
p680
I2
tp681
a(g376
S'1xoCTRhdDGmgNVb4xpuLk8fYbobXNXiB8'
p682
I2
tp683
a(g376
S'1HWJKgr7zT4ouxv4mM12C4EvGtrJZtstse'
p684
I2
tp685
a(g376
S'12kkinsYNJSGfktK3m9UY7n9Luov5w8gnz'
p686
I2
tp687
a(g376
S'18rC48Nv39v3EFLhJVp5xbGX1aAfXhV41E'
p688
I2
tp689
a(g376
S'13Y9KZBauP5cPFN4Y2fSYNQwFgJUw8Zxb5'
p690
I2
tp691
a(g376
S'1Ci81Qoq7ZmMHJ1yjN5quCdrb7ht7TxexD'
p692
I2
tp693
a(g376
S'1F7DGgVE19RSPtHvr2TDxmLPS7Q3yhC5TP'
p694
I2
tp695
a(g376
S'12giLAkb1xHGFT8Fo8Nvu7dV5hk8ZTgsrM'
p696
I2
tp697
a(g376
S'13WHwxzVNJpuJSZcJEQUxWvXPeNrAcJDXS'
p698
I2
tp699
a(g376
S'18Sjbr8PdAVXEmWja2X1mZKW6dGTL92ThZ'
p700
I2
tp701
a(g376
S'16rG31Lz8ckrjdVAfXLfvqxxDZTgj3vxoa'
p702
I2
tp703
a(g376
S'19XHRzkSwb3huRaT7Jr7c2aDQVL2ekidGK'
p704
I2
tp705
a(g376
S'1941hPhAr3cVfCPGMQNbLbAds3xjbZRYTC'
p706
I2
tp707
a(g376
S'1GQEtFPgzWdq2w85aXC5oW7YwuMdstzDCq'
p708
I2
tp709
a(g376
S'1JScPgGqWxbhhmxvrtLPtyK8UDbt5rTAS1'
p710
I2
tp711
a(g376
S'14fqBe2SRat2Qt6s2AycGMR3UXnZUdfQLo'
p712
I2
tp713
a(g376
S'1EiWkS8nGGjSBEz9HBa4KpRRjUDDJneceP'
p714
I2
tp715
a(g376
S'18MZVeDJW192BAejEjxLGAi7j9kyMs76MR'
p716
I2
tp717
a(g376
S'12EVvARQ4bkvfy8yC48NNY4k9JVnhfNJy2'
p718
I2
tp719
a(g376
S'1KUSWkEuwThL7tHCFRNQjzcDrACHuAZfvq'
p720
I2
tp721
a(g376
S'1Q63gC6U5Fnm7M4TwuB5kGAwYaTdRkwXsU'
p722
I2
tp723
a(g376
S'1GXQX3DoC6fdFg8B5YucrSjEk7R6P5PERU'
p724
I2
tp725
a(g376
S'12biNUjtTpW6zF4e2YiZuCe51TABRoeHcB'
p726
I2
tp727
a(g376
S'1LevqwopEnGrBPVXKWGMKMKgqmFyLpoRAC'
p728
I2
tp729
a(g376
S'13aQhmVP5S2FEsmFp8joB6Ru2pSwW29j4v'
p730
I2
tp731
a(g376
S'1E5f63m4Sj8dX5mXWoJguGqeQBiEsujxjM'
p732
I2
tp733
a(g376
S'1Hosa15n87R7kAx4noy6RbrUnkZ5nH527z'
p734
I2
tp735
a(g376
S'1Ns3ZKCjjaGnnjGhDaevQv3a9ziHiG9mMm'
p736
I2
tp737
a(g376
S'1NxCmJmwM2dYJDKSVrc4jJ9H6LH5bcrN17'
p738
I2
tp739
a(g376
S'16ujtjcw6oMAcpn8KNReWrwS5Nx7KQKLJy'
p740
I2
tp741
a(g376
S'1FqfkTzVPvpsQCk3WL8QvJzUsdiVd4BfZJ'
p742
I2
tp743
a(g376
S'12NUbvRg5pdEhDYNbVc4ofSmTLoYZbkdqn'
p744
I2
tp745
a(g376
S'1JLUuJNhi6CY9bMsaETSLX1b87ThJZmPCM'
p746
I2
tp747
a(g376
S'1DpAMynvEGQDdps68nHeZUm3RCjkH15hk1'
p748
I2
tp749
a(g376
S'1AyZq5mdB8nQkeJALo9EZnRCxmsUKg3d1F'
p750
I2
tp751
a(g376
S'1HCagWVL3Zc7bvBmL8avgzYpqKtkSBqxor'
p752
I2
tp753
a(g376
S'1MefyR3CpgDhupqFGLzwVTRA4xSLy9fZTG'
p754
I2
tp755
a(g376
S'1J7Fxj2Cicu6hMAeakXkqPYN2ZXWacFJ3p'
p756
I2
tp757
a(g376
S'1J7NeYT4od4fyqdpD498nJvvcdcUy4GMxe'
p758
I2
tp759
a(g376
S'12TSydmREkPSLGMWiKH52n9zF1pv2UPWxT'
p760
I2
tp761
a(g376
S'147xv982wmVsZ5AWdgwMFLmYtg5LrQV6rw'
p762
I2
tp763
a(g376
S'1DoFBNReRib5mx1571CBJ86X3W14fLaaT'
p764
I2
tp765
a(g376
S'13i6soEBoYwwz5C9uEy9Q18EwzvasaZemL'
p766
I2
tp767
a(g376
S'1PsUUYtuQ8Pa3ujHsVgchGtejwhJDh65N1'
p768
I2
tp769
a(g376
S'1AkjrkZjqmtEP9kBPWzRjr6iDigUVh9T8o'
p770
I2
tp771
a(g376
S'16uJr29kGrjpdd4335Q1LQEEMf7YKvPpXp'
p772
I2
tp773
a(g376
S'1Nm9yvGsVNeQGDdtJS1ro8dmhvCVfwNRz5'
p774
I2
tp775
a(g376
S'1qiRs4njvYYwWVYm4qd9e6TeNNWfkkcP2'
p776
I2
tp777
a(g376
S'19HxGyzR9SeMsdCpgNccfEMST4Zr8TVeQH'
p778
I2
tp779
a(g376
S'1BH1PvgChJbCg362hLFBssh5Yoxqui2Z12'
p780
I2
tp781
a(g376
S'16aKDSDPSNw8HQBUGLcxEjxYN3RdFSphxy'
p782
I2
tp783
a(g376
S'1GJCGspoHUSCwmWJv6EVJUFmST4XqKNDAs'
p784
I2
tp785
a(g376
S'12XNCMZYaExYnxfoSs1GSRLF197aa9ub32'
p786
I2
tp787
a(g376
S'1Cp1TuR6SgG1eomCWnMoEtzY3kXZtHfTxV'
p788
I2
tp789
a(g376
S'16MbCr83VVDP1jMUhgMBGVYE6W8GJzKLUH'
p790
I2
tp791
a(g376
S'1i5NhdKKudDvTYnTACQFdW2RWGG7EhFQj'
p792
I2
tp793
a(g376
S'13qquBsqb6AR1HqXkA97JJZfBwgsGWaxNL'
p794
I2
tp795
a(g376
S'1EDFTpv9eP3yZJGq6z3BWVYGiicMLNbPFw'
p796
I2
tp797
a(g376
S'13ADdWaoG3xyxDzFJkp2NAMKRziGAFJRvQ'
p798
I2
tp799
a(g376
S'1KC3VaQJqJsbn63ad4MpLVYnrzRXxMdbDm'
p800
I2
tp801
a(g376
S'13khXjcfWBcdF39xDJpcfH6YjAWAGN14P8'
p802
I2
tp803
a(g376
S'1MjMwMEEJeuq2RgFEuKof9gkdkTZzVGMbm'
p804
I2
tp805
a(g376
S'14NVoz74vcVJPsUE9Hxq4NyVXBAKaim2gv'
p806
I2
tp807
a(g376
S'17Er7JGesVNL9BTp7xoAQJhchRDajp9tUm'
p808
I2
tp809
a(g376
S'14xg9Vq7nvaUL4UYXBQZPintaAYruHge4k'
p810
I2
tp811
a(g376
S'1wWa2xqbfg1jZ9zhEPjLFacduv4kz4bc2'
p812
I2
tp813
a(g376
S'1LuxikGGJFXNzV9fSr2ervLTPqXwHKE2Gv'
p814
I2
tp815
a(g376
S'1P62koCE4rt24DhYjAJMSMv79TQmhGZ5ZR'
p816
I2
tp817
a(g376
S'1GrUaBA3o8LwnxVFAZgLnQ9GNfAzQyGDAk'
p818
I2
tp819
a(g376
S'19v1vsDbxRVzsk3wWDcgCgf3HmXbXFsWnn'
p820
I2
tp821
a(g376
S'1FV47DFtfaMVQLCqvTx663miUikSPf7cr4'
p822
I2
tp823
a(g376
S'1HbiZbquJ9Zo4oy36aYmFAUFvQaPHHsCLt'
p824
I2
tp825
a(g376
S'136GwAiym4xKh9UkQmZTLqNjbVTmV1uDn8'
p826
I2
tp827
a(g376
S'18xGBUXp386yVN8R7s8BE2Wf6PFAoabAPz'
p828
I2
tp829
a(g376
S'1JR5B4Ha34tLGCpbSkmNy5jUKT77kjD7LE'
p830
I2
tp831
a(g376
S'14XCqK9utFDrKGqX26GLCfVfPbMuUPHqyT'
p832
I2
tp833
a(g376
S'1GfF34yK4s7ogHQaXWcbA4e5uyfFQb2A6D'
p834
I2
tp835
a(g376
S'18Tk27CMQBG4mM8pxghsqPtjjGiT3Jcf6S'
p836
I2
tp837
a(g376
S'1JBffg4jzvZ11JtmiQ4yWLHKPoUA2Liv4Y'
p838
I2
tp839
a(g376
S'14fWKaZgCCet3eKTZHWbdqRp2rZgFVW3ye'
p840
I2
tp841
a(g376
S'14Qfk7S1c41CrECPZF7aBbfVSjTyt2vwxe'
p842
I2
tp843
a(g376
S'1QD9JZoJoEKzuro2JwkZagtQ7FUJyMSy1q'
p844
I2
tp845
a(g376
S'1J5kvGLMaPKQBeRNa1Dp3RPstv16fYZamz'
p846
I2
tp847
a(g376
S'1NCBxNbX4nwDVP1iLwevNjGZpL3Vg2rsxY'
p848
I2
tp849
a(g376
S'1JBffg4jzvZ11JtmiQ4yWLHKPoUA2Liv4Y'
p850
I2
tp851
a(g376
S'12CLGK3F9Sn8SX6kFCUVvmcvUdmzg3JUG6'
p852
I2
tp853
a(g376
S'1KF6o5GYzzoVaWC3UVVVG25LU11BPznkVg'
p854
I2
tp855
a(g376
S'1Hz9BnjUxwaupa6UBw9hBajAXJuc3VEUV4'
p856
I2
tp857
a(g376
S'1HVMxdmibSN3kEqJwZeVcte8VT4qEdo9ym'
p858
I2
tp859
a(g376
S'1NVyzF9mrQjkmxjFbMAuXAmrGQQrssARY1'
p860
I2
tp861
a(g376
S'19qn4NrWeWBCRKi2UukjovmRgeWHunJRsb'
p862
I2
tp863
a(g376
S'1dzS4TofrBdmQGvKzAP5zxxnPMhXRfiGq'
p864
I2
tp865
a(g376
S'1KB3niEaw7cFYsBtbvHA3qFsbS6w9kGCKN'
p866
I2
tp867
a(g376
S'1P3CpWNFHEybhrHrNXgADxVjF8merg4gM7'
p868
I2
tp869
a(g376
S'13AEkxmCR1e1kT14H1rjymFzD6ogN3BhXT'
p870
I2
tp871
a(g376
S'1278Mp8kgxmke5DoT9zpbYy9Xr3orJZjgG'
p872
I2
tp873
a(g376
S'1KMJqQnZsgWoYSFM1ZoVt81592j8aZcEMz'
p874
I2
tp875
a(g376
S'1BQYrDwggSNaeKUTnXree6rwYcY3aHhdxn'
p876
I2
tp877
a(g376
S'1QC5yfUsBoxSd2DKEarh6cFLz8F3Q7Gsx7'
p878
I2
tp879
a(g376
S'1LFd3mDqmfKCsUJKxfRMfRTsxWmDyWD97x'
p880
I2
tp881
a(g376
S'1Hy5efbKkfxim9gNiaNk62eHPayFGyeLWi'
p882
I2
tp883
a(g376
S'1EiHcpqBXwRf6TbccFwcahrjVPvnQVYi4B'
p884
I2
tp885
a(g376
S'1KhywQhaPqHgMyHFo2EBBhjGUMkbmpHzKd'
p886
I2
tp887
a(g376
S'17QF1E57yAVY8eRJSCE8EUKEqhtSt9ERw4'
p888
I2
tp889
a(g376
S'1QErnC3ZTzCreT3eWsXuq7gve3UpPR8CLD'
p890
I2
tp891
a(g376
S'1Ekfx796UcYt4hjw61zFyveeomNZvRmF3N'
p892
I2
tp893
a(g376
S'1NfbnT3UWMy55H6roQ4r9mFagDdk7johsP'
p894
I2
tp895
a(g376
S'197w7fZe4q226wKpEv1mSWjRzvLDFq3eZ9'
p896
I2
tp897
a(g376
S'19iHmVZH6axpuaCkhWtAaMQ2sgZdpVeeCt'
p898
I2
tp899
a(g376
S'1LZ4TAbytev5ksCGwMo37AVAxcxYSBgqSB'
p900
I2
tp901
a(g376
S'14ba3LcPJzRKMBTazSL3eyGVgwquhT9SNP'
p902
I2
tp903
a(g376
S'1NtzJBVLeJQ8MKCp4uw2DDsJncarsE9PZR'
p904
I2
tp905
a(g376
S'16EfmEsu4UWofqHrbYthvjAywsGintSKaR'
p906
I2
tp907
a(g376
S'1AatVpyZkhcHAic2o1fs6LXsyoCxFeuAdS'
p908
I2
tp909
a(g376
S'1dXqYamjzvbdFU8Vuk4rwQEvcTMvt8NHb'
p910
I2
tp911
a(g376
S'13kCEKjWPR66cz6GF8zRkq3U6A1cdagq7Q'
p912
I2
tp913
a(g376
S'1NoyU3z7wMzFxJahifeYREAms9nX7PiRJE'
p914
I2
tp915
a(g376
S'1K9agfgr8s6PJbGnoFnc18w2ZCCNGZ8yf6'
p916
I2
tp917
a(g376
S'1Fm5z5UtjgqdtUtjH2qzzKZyzFZwGKemut'
p918
I2
tp919
a(g376
S'16a9Eq986rJz2QRE1RCMosnjTjkHA9TWen'
p920
I2
tp921
a(g376
S'14cdQKDyffz77DmTYCKXCYfcWUVjc1ZNfD'
p922
I2
tp923
a(g376
S'16wsVSSryD63tu2zW9sndwfPtZx3bx7tAL'
p924
I2
tp925
a(g376
S'1A6ikFsDzFY1VEiSAGYQfjS6DggYZdeNbq'
p926
I2
tp927
a(g376
S'13kZeAP8y5MGCUQV5o2L3AzGYUR4iAGzkG'
p928
I2
tp929
a(g376
S'19YwhewSH6CNUdLE1YpC97FCyQvbvCSueL'
p930
I2
tp931
a(g376
S'1JM3egUycgfVEVkNTKe15Ctp3v6r88wS2A'
p932
I2
tp933
a(g376
S'1P1hMDXQTPRwmpWPxN1omPt6uyHAUbj2mr'
p934
I2
tp935
a(g376
S'16tNDJXFXAeRUsNX1qAiCFm5NDxTRmP7j3'
p936
I2
tp937
a(g376
S'1Jj9Reb7C84VUWcBmyzgV6mNZDQ468Wbpf'
p938
I2
tp939
a(g376
S'17tQEohwNqcLKTCu4vwhdwuwjL8fiLBjzm'
p940
I2
tp941
a(g376
S'1P1hMDXQTPRwmpWPxN1omPt6uyHAUbj2mr'
p942
I2
tp943
a(g376
S'1EJ9ZGAmjF7RJWwtUKBhDfYxPiGJemG3yb'
p944
I2
tp945
a(g376
S'1PiwpYNiikrpV9HJcbjtEzMAhLwDja4Fio'
p946
I2
tp947
a(g376
S'1AadmVhUZBahVqhLjcg4P5WtjwXE9uD5nS'
p948
I2
tp949
a(g376
S'1Nv45XpXsJn4ZRHxwskt7xLVumKNbE4ZHQ'
p950
I2
tp951
a(g376
S'1CoD6VuSpmoinUGky1Vrh9eZvtkKpm81Cg'
p952
I2
tp953
a(g376
S'1J3Z1wB7h6rRq9ti8vGVrXRppRSywNKEk8'
p954
I2
tp955
a(g376
S'1D1o31TCR6rKAtWXQJsFPPKQJHUS74HFYa'
p956
I2
tp957
a(g376
S'1F6DBsZUpcoKVyKS6V93VNkgqnZVCJVn3W'
p958
I2
tp959
a(g376
S'1Pyegd714gnHkdrfyHqP6Neuy2GSPjgNDY'
p960
I2
tp961
a(g376
S'1E8fx2gUc6XpVpQJLRrEH6moCyjWe3yCKC'
p962
I2
tp963
a(g376
S'1FYqvccig842B8Ja2Sybm15YHvg4hmrTCp'
p964
I2
tp965
a(g376
S'196GVE2w6q4yLMtuqERBsJE4YtmNJqrmmJ'
p966
I2
tp967
a(g376
S'12NxcPtsqQyNc3cDRDypp3cbzcXtNP25ir'
p968
I2
tp969
a(g376
S'12NxcPtsqQyNc3cDRDypp3cbzcXtNP25ir'
p970
I2
tp971
a(g376
S'12NxcPtsqQyNc3cDRDypp3cbzcXtNP25ir'
p972
I2
tp973
a(g376
S'12NxcPtsqQyNc3cDRDypp3cbzcXtNP25ir'
p974
I2
tp975
a(g356
S'1FyZU66p35h2gJ5AYeksV8qkxGJApv9X1V'
p976
I2
tp977
a(g356
S'1Exj1gRXo64rD4ztTrR7mPJCpvB5jYu7PL'
p978
I2
tp979
a(g356
S'1EFq2qGyHNTKKT6Kot9eX8yaZZR3cpWoHY'
p980
I2
tp981
a(g356
S'1NqDkWttEKks5ZxrFKZXdTnrBn8iZEReux'
p982
I2
tp983
a(g356
S'171JkkpM8GH7gznpyfoUHkvcpCmrGdTte7'
p984
I2
tp985
a(g356
S'158f4APDxW7JAZEbZsQeaaeFBxT4EYVma4'
p986
I2
tp987
a(g356
S'12Hhb5Qzpdp2dmHoZUrQELHGDdZs2JaQeE'
p988
I2
tp989
a(g356
S'1DQHAETnjPmgcMPTw9AntvXLrHZCwwTS2H'
p990
I2
tp991
a(g356
S'17hxPj28HwZiqJhKPFyAntQKcM3FR9nrUu'
p992
I2
tp993
a(g356
S'1Fa7mp7vpcywb8GASfLu3ZWWdDryZmjY8m'
p994
I2
tp995
a(g356
S'17hYiQkLwQNXxMEAH1MqgEt4uDZbCUq5CX'
p996
I2
tp997
a(g356
S'16X2tfQDVW5dcQNuhy7Qx6n5ioYFSSsrUb'
p998
I2
tp999
a(g356
S'141CutjdkBptciunKhNtDMtXQ5ZdFPMzi8'
p1000
I2
tp1001
a(g380
S'1KtBVFBSCz5T3eR13QAh4XMQhY6QT3fCtN'
p1002
I2
tp1003
a(g380
S'1KKh5QRx6jpikPHdY74FP4MCAuLdQ5DxAU'
p1004
I2
tp1005
a(g380
S'17ZNsUz2tF1yahKLhZ8akafVYU5YtFRG9i'
p1006
I2
tp1007
a(g380
S'17hxPj28HwZiqJhKPFyAntQKcM3FR9nrUu'
p1008
I2
tp1009
a(g364
S'1Enbmnzz2D1GHcURMixV1qsLagdTYWfvRL'
p1010
I2
tp1011
a(g364
S'1Gf13m1yuWZtJbMbcqwxvVNLozs7tNuwVe'
p1012
I2
tp1013
a(g364
S'18FJear4RBWLfgVD3yfbvvGuAPLE8wCGPw'
p1014
I2
tp1015
a(g364
S'1Q47f2ELDbhVsVLbN99SBezsKrorqyHnfJ'
p1016
I2
tp1017
a(g364
S'1Lh8ScAvJAJcjuPtRzCZqzREaP4D5jCarP'
p1018
I2
tp1019
a(g364
S'17jtjmJqdPyF9iD1duGAmvbjAmeBSLGH8g'
p1020
I2
tp1021
a(g364
S'1FyZU66p35h2gJ5AYeksV8qkxGJApv9X1V'
p1022
I2
tp1023
a(g364
S'1Exj1gRXo64rD4ztTrR7mPJCpvB5jYu7PL'
p1024
I2
tp1025
a(g364
S'1EFq2qGyHNTKKT6Kot9eX8yaZZR3cpWoHY'
p1026
I2
tp1027
a(g364
S'1NqDkWttEKks5ZxrFKZXdTnrBn8iZEReux'
p1028
I2
tp1029
a(g364
S'19eZH8yD5Ln9mtvytinZxZYZewigaeA6wj'
p1030
I2
tp1031
a(g364
S'171JkkpM8GH7gznpyfoUHkvcpCmrGdTte7'
p1032
I2
tp1033
a(g364
S'158f4APDxW7JAZEbZsQeaaeFBxT4EYVma4'
p1034
I2
tp1035
a(g364
S'12Hhb5Qzpdp2dmHoZUrQELHGDdZs2JaQeE'
p1036
I2
tp1037
a(g364
S'17hxPj28HwZiqJhKPFyAntQKcM3FR9nrUu'
p1038
I2
tp1039
a(g378
S'19Cr2u6Jm72ZJEToePHVLDPC7EsxaQXYrJ'
p1040
I2
tp1041
a(g378
S'17hxPj28HwZiqJhKPFyAntQKcM3FR9nrUu'
p1042
I2
tp1043
a(g378
S'1PqSW5fmZcGAVgMc3t7hPuQLTFittAKie1'
p1044
I2
tp1045
a(g378
S'18hgFXBLYowGbS3WXQgigXk5uTkkPmyavX'
p1046
I2
tp1047
a(g342
S'17hxPj28HwZiqJhKPFyAntQKcM3FR9nrUu'
p1048
I2
tp1049
a(g342
S'17h5HfJ9MD3TgRJ7PRxSN3Zp5JevoCunha'
p1050
I2
tp1051
a(g342
S'17hxPj28HwZiqJhKPFyAntQKcM3FR9nrUu'
p1052
I2
tp1053
a(g342
S'1NRDCwvi1766X9Yqvjj838YExrRh1MH22r'
p1054
I2
tp1055
a(g342
S'1EE9hUft8FegFposWH7UiXGZLUNSAGzP1m'
p1056
I2
tp1057
a(g342
S'17hxPj28HwZiqJhKPFyAntQKcM3FR9nrUu'
p1058
I2
tp1059
a(g342
S'17hxPj28HwZiqJhKPFyAntQKcM3FR9nrUu'
p1060
I2
tp1061
a(g342
S'1HWXiebefL1r7T1YKFNtLXfAKJh5Jf2NZR'
p1062
I2
tp1063
a(g358
S'1FyZU66p35h2gJ5AYeksV8qkxGJApv9X1V'
p1064
I2
tp1065
a(g358
S'1Exj1gRXo64rD4ztTrR7mPJCpvB5jYu7PL'
p1066
I2
tp1067
a(g358
S'1EFq2qGyHNTKKT6Kot9eX8yaZZR3cpWoHY'
p1068
I2
tp1069
a(g358
S'1NqDkWttEKks5ZxrFKZXdTnrBn8iZEReux'
p1070
I2
tp1071
a(g358
S'19eZH8yD5Ln9mtvytinZxZYZewigaeA6wj'
p1072
I2
tp1073
a(g358
S'158f4APDxW7JAZEbZsQeaaeFBxT4EYVma4'
p1074
I2
tp1075
a(g358
S'12Hhb5Qzpdp2dmHoZUrQELHGDdZs2JaQeE'
p1076
I2
tp1077
a(g358
S'1DQHAETnjPmgcMPTw9AntvXLrHZCwwTS2H'
p1078
I2
tp1079
a(g358
S'17hxPj28HwZiqJhKPFyAntQKcM3FR9nrUu'
p1080
I2
tp1081
a(g358
S'1QEWRSCcFidTTxobnYaugKvnwKGeEbiukP'
p1082
I2
tp1083
a(g358
S'1GjQGqbEJn2HmZWWN2FXCCHKR5NEiTp8ZD'
p1084
I2
tp1085
a(g358
S'18gbqLdn7F6RYi5SwH1Ay4rviaYQKyNyBQ'
p1086
I2
tp1087
a(g358
S'1NbPBoqTzXTKyPMQ5fLiDJ8itjnwzCf62D'
p1088
I2
tp1089
a(g358
S'1B5Ly3U7pjptiibcFJsYzk5ibYimL1Xk1n'
p1090
I2
tp1091
a(g358
S'1LupkzJoN1EL3kLPAyfWRN7m47knqB18Ee'
p1092
I2
tp1093
a(g340
S'17hxPj28HwZiqJhKPFyAntQKcM3FR9nrUu'
p1094
I2
tp1095
a(g340
S'1Pxs2mRNVVSZJxJBpQXrPUktRWGLpiksW3'
p1096
I2
tp1097
a(g340
S'17hxPj28HwZiqJhKPFyAntQKcM3FR9nrUu'
p1098
I2
tp1099
a(g340
S'1NRDCwvi1766X9Yqvjj838YExrRh1MH22r'
p1100
I2
tp1101
a(g340
S'1EE9hUft8FegFposWH7UiXGZLUNSAGzP1m'
p1102
I2
tp1103
a(g340
S'1C4ugY6ar28csZ3PCWFE8YMjACy3qvvaXf'
p1104
I2
tp1105
a(g340
S'1EE9hUft8FegFposWH7UiXGZLUNSAGzP1m'
p1106
I2
tp1107
a(g354
S'1FyZU66p35h2gJ5AYeksV8qkxGJApv9X1V'
p1108
I2
tp1109
a(g354
S'1Exj1gRXo64rD4ztTrR7mPJCpvB5jYu7PL'
p1110
I2
tp1111
a(g354
S'1EFq2qGyHNTKKT6Kot9eX8yaZZR3cpWoHY'
p1112
I2
tp1113
a(g354
S'19eZH8yD5Ln9mtvytinZxZYZewigaeA6wj'
p1114
I2
tp1115
a(g354
S'171JkkpM8GH7gznpyfoUHkvcpCmrGdTte7'
p1116
I2
tp1117
a(g354
S'158f4APDxW7JAZEbZsQeaaeFBxT4EYVma4'
p1118
I2
tp1119
a(g354
S'12Hhb5Qzpdp2dmHoZUrQELHGDdZs2JaQeE'
p1120
I2
tp1121
a(g354
S'1DQHAETnjPmgcMPTw9AntvXLrHZCwwTS2H'
p1122
I2
tp1123
a(g354
S'17hxPj28HwZiqJhKPFyAntQKcM3FR9nrUu'
p1124
I2
tp1125
a(g354
S'1B9eYQ3t2wqvPYMqYeNrFB9biRhtdMfnzN'
p1126
I2
tp1127
a(g354
S'16vau4jPfa4gSKyCQAvDgpvqQFk1XM3iyT'
p1128
I2
tp1129
a(g344
S'1GrjTr6vbpjLU1E6SeyKMXrTzx5MSABF6i'
p1130
I2
tp1131
a(g344
S'1KnW65vPm9NyaDCVyYWaCE7pEFmDGo4Dz4'
p1132
I2
tp1133
a(g344
S'17hxPj28HwZiqJhKPFyAntQKcM3FR9nrUu'
p1134
I2
tp1135
a(g344
S'17h5HfJ9MD3TgRJ7PRxSN3Zp5JevoCunha'
p1136
I2
tp1137
a(g344
S'1Pxs2mRNVVSZJxJBpQXrPUktRWGLpiksW3'
p1138
I2
tp1139
a(g344
S'17hxPj28HwZiqJhKPFyAntQKcM3FR9nrUu'
p1140
I2
tp1141
a(g344
S'1EE9hUft8FegFposWH7UiXGZLUNSAGzP1m'
p1142
I2
tp1143
a.