(lp0
(V1MgGhdPqBzuy9XK1be7QNJWEj5mKUPP9Rk
p1
S'1NZS9XXzWAhnjc3t8JfdEziMnJ46tdu3FL'
p2
I0
tp3
a(g1
S'1Mr3kEFgjNPn7iFMtUFCt4dBXdFZfX6AfU'
p4
I0
tp5
a(g1
S'1MPZsccLaYBh6Vd7LxjbSzbemyE683ueZh'
p6
I0
tp7
a(g1
S'1Lx9wAKRSgjWvT5QYcgy3iFk3tkmUagZK4'
p8
I0
tp9
a(g1
S'12RcHS7QbGhwh7bM3sbJfrvJKJ8r6BKF8M'
p10
I0
tp11
a(g10
S'1CXQ1hp9MJjTqL7mnhDDxRrZMbEdadPsa7'
p12
I1
tp13
a(g10
S'1JJd73LbQ7y39gAMJ8j5FfT5AgVBQPi8qx'
p14
I1
tp15
a(g10
S'1Lx9wAKRSgjWvT5QYcgy3iFk3tkmUagZK4'
p16
I1
tp17
a(g10
S'1MgGhdPqBzuy9XK1be7QNJWEj5mKUPP9Rk'
p18
I1
tp19
a(g16
S'17qdKqpyci1nzAPNMx2bDBXKV29xAo6pgq'
p20
I2
tp21
a(g16
S'17yTBEpJRaagvqJueRz7MifPXuBnDLTBRi'
p22
I2
tp23
a(g16
S'16Ve8mmxcRfwtBr7bT6JW3GuGifzPniQ84'
p24
I2
tp25
a(g16
S'1KAwRsdfFR5f7HxwYtSahV12qu43GvR1MK'
p26
I2
tp27
a(g16
S'1B4KKSBF31psFsTUrt82qhSbVS28Lu7FZ'
p28
I2
tp29
a(g16
S'1Q28HKMKjVTavyNgziryUr9bSfMk2dokb8'
p30
I2
tp31
a(g16
S'12WmbuQg1VmH8Yn44E5nXMYPu8y5LGSjmT'
p32
I2
tp33
a(g16
S'15nhasjGhyWub9Giofp8M8oricbdSSzGME'
p34
I2
tp35
a(g16
S'12WmbuQg1VmH8Yn44E5nXMYPu8y5LGSjmT'
p36
I2
tp37
a(g16
S'15nhasjGhyWub9Giofp8M8oricbdSSzGME'
p38
I2
tp39
a(g16
S'12WmbuQg1VmH8Yn44E5nXMYPu8y5LGSjmT'
p40
I2
tp41
a(g16
S'1Do3FVayaETEvwUvW7bnBnXQvSioCjpyAK'
p42
I2
tp43
a(g16
S'12WmbuQg1VmH8Yn44E5nXMYPu8y5LGSjmT'
p44
I2
tp45
a(g16
S'12WmbuQg1VmH8Yn44E5nXMYPu8y5LGSjmT'
p46
I2
tp47
a(g16
S'1JCsNJFdZvpxG1qaPtKPNUwQqVDH2HSRJB'
p48
I2
tp49
a(g16
S'15nhasjGhyWub9Giofp8M8oricbdSSzGME'
p50
I2
tp51
a(g16
S'15nhasjGhyWub9Giofp8M8oricbdSSzGME'
p52
I2
tp53
a(g16
S'15nhasjGhyWub9Giofp8M8oricbdSSzGME'
p54
I2
tp55
a(g16
S'12WmbuQg1VmH8Yn44E5nXMYPu8y5LGSjmT'
p56
I2
tp57
a(g16
S'13e7ixqzWqJoXpXWyvNatAv68y4aahiXj1'
p58
I2
tp59
a(g16
S'15nhasjGhyWub9Giofp8M8oricbdSSzGME'
p60
I2
tp61
a(g16
S'1N9Zf5ARFQtLw12NN7VSe5uWgPBJJLbZjM'
p62
I2
tp63
a(g16
S'12WmbuQg1VmH8Yn44E5nXMYPu8y5LGSjmT'
p64
I2
tp65
a(g16
S'12WmbuQg1VmH8Yn44E5nXMYPu8y5LGSjmT'
p66
I2
tp67
a(g16
S'12WmbuQg1VmH8Yn44E5nXMYPu8y5LGSjmT'
p68
I2
tp69
a(g16
S'12WmbuQg1VmH8Yn44E5nXMYPu8y5LGSjmT'
p70
I2
tp71
a(g16
S'12WmbuQg1VmH8Yn44E5nXMYPu8y5LGSjmT'
p72
I2
tp73
a(g16
S'15nhasjGhyWub9Giofp8M8oricbdSSzGME'
p74
I2
tp75
a(g16
S'15nhasjGhyWub9Giofp8M8oricbdSSzGME'
p76
I2
tp77
a(g16
S'12WmbuQg1VmH8Yn44E5nXMYPu8y5LGSjmT'
p78
I2
tp79
a(g16
S'12WmbuQg1VmH8Yn44E5nXMYPu8y5LGSjmT'
p80
I2
tp81
a(g16
S'13e7ixqzWqJoXpXWyvNatAv68y4aahiXj1'
p82
I2
tp83
a(g16
S'17qdKqpyci1nzAPNMx2bDBXKV29xAo6pgq'
p84
I2
tp85
a(g16
S'1A3dM4T46WNiy1UiTuF31Hcfcyyq8L4zAt'
p86
I2
tp87
a(g16
S'1A3dM4T46WNiy1UiTuF31Hcfcyyq8L4zAt'
p88
I2
tp89
a(g16
S'12WmbuQg1VmH8Yn44E5nXMYPu8y5LGSjmT'
p90
I2
tp91
a(g16
S'12WmbuQg1VmH8Yn44E5nXMYPu8y5LGSjmT'
p92
I2
tp93
a(g16
S'12WmbuQg1VmH8Yn44E5nXMYPu8y5LGSjmT'
p94
I2
tp95
a(g16
S'18cmvaiZnTautRMGk9pPPJHtTp8Lh5L8eS'
p96
I2
tp97
a(g16
S'12WmbuQg1VmH8Yn44E5nXMYPu8y5LGSjmT'
p98
I2
tp99
a(g16
S'12WmbuQg1VmH8Yn44E5nXMYPu8y5LGSjmT'
p100
I2
tp101
a(g16
S'12WmbuQg1VmH8Yn44E5nXMYPu8y5LGSjmT'
p102
I2
tp103
a(g16
S'19gPsSLAoowdG9Zoj23RpUeapj3AuZByfd'
p104
I2
tp105
a(g16
S'18cmvaiZnTautRMGk9pPPJHtTp8Lh5L8eS'
p106
I2
tp107
a(g16
S'12n1CbXpKXuQRQZNusJaM2madZLLqpTyb5'
p108
I2
tp109
a(g16
S'12WmbuQg1VmH8Yn44E5nXMYPu8y5LGSjmT'
p110
I2
tp111
a(g16
S'19gPsSLAoowdG9Zoj23RpUeapj3AuZByfd'
p112
I2
tp113
a(g16
S'12WmbuQg1VmH8Yn44E5nXMYPu8y5LGSjmT'
p114
I2
tp115
a(g16
S'12WmbuQg1VmH8Yn44E5nXMYPu8y5LGSjmT'
p116
I2
tp117
a(g16
S'1G44NgP8qv1h97R34aqqoR3eRwTMPtuiQS'
p118
I2
tp119
a(g16
S'1Bmz1yeTroSnzjD9EKMDjghTyihBSDAGq8'
p120
I2
tp121
a(g16
S'12WmbuQg1VmH8Yn44E5nXMYPu8y5LGSjmT'
p122
I2
tp123
a(g16
S'15nhasjGhyWub9Giofp8M8oricbdSSzGME'
p124
I2
tp125
a(g16
S'12WmbuQg1VmH8Yn44E5nXMYPu8y5LGSjmT'
p126
I2
tp127
a(g16
S'15nhasjGhyWub9Giofp8M8oricbdSSzGME'
p128
I2
tp129
a(g16
S'15nhasjGhyWub9Giofp8M8oricbdSSzGME'
p130
I2
tp131
a(g16
S'15nhasjGhyWub9Giofp8M8oricbdSSzGME'
p132
I2
tp133
a(g16
S'12WmbuQg1VmH8Yn44E5nXMYPu8y5LGSjmT'
p134
I2
tp135
a(g16
S'15nhasjGhyWub9Giofp8M8oricbdSSzGME'
p136
I2
tp137
a(g16
S'12nYT46J5JwDXMhWPPm8dQ77t2FLeNW9uT'
p138
I2
tp139
a(g16
S'13e7ixqzWqJoXpXWyvNatAv68y4aahiXj1'
p140
I2
tp141
a(g16
S'19gPsSLAoowdG9Zoj23RpUeapj3AuZByfd'
p142
I2
tp143
a(g16
S'15nhasjGhyWub9Giofp8M8oricbdSSzGME'
p144
I2
tp145
a(g16
S'15nhasjGhyWub9Giofp8M8oricbdSSzGME'
p146
I2
tp147
a(g16
S'1Gsgu3qy8FbV26U1TZzZ32uGmyX7uw3tYr'
p148
I2
tp149
a(g16
S'1GMRQRaDaTnzbmTVsuV8jQxAt7MYuTdG1o'
p150
I2
tp151
a(g16
S'1DAaqtJ9oyjF5rHhUiE1Q7SoLqFpMSWc7D'
p152
I2
tp153
a(g16
S'1KpssEpMnQtALg5meRGqt1afnbSbEosQFo'
p154
I2
tp155
a(g16
S'17opkTDtkRGqMkTJwXCcV15tVcnuMMNNc4'
p156
I2
tp157
a(g16
S'15nhasjGhyWub9Giofp8M8oricbdSSzGME'
p158
I2
tp159
a(g16
S'15nhasjGhyWub9Giofp8M8oricbdSSzGME'
p160
I2
tp161
a(g16
S'12WmbuQg1VmH8Yn44E5nXMYPu8y5LGSjmT'
p162
I2
tp163
a(g16
S'15nhasjGhyWub9Giofp8M8oricbdSSzGME'
p164
I2
tp165
a(g16
S'1Gsgu3qy8FbV26U1TZzZ32uGmyX7uw3tYr'
p166
I2
tp167
a(g16
S'1GgMucv3cukqUFPpBFxKo9krYUNbgBsXJQ'
p168
I2
tp169
a(g16
S'1HngaW3yoXNa7tvcAeFxPGFVvUNxsz3qSh'
p170
I2
tp171
a(g16
S'1PRyigAZTH6VDXPu59V26shjW8hT6KsgAb'
p172
I2
tp173
a(g16
S'1ANkHdK4ReLwapxRisgABx6ZT16k1cvaDL'
p174
I2
tp175
a(g16
S'19mXS1MRfx4ihdeQg1SmWAeP2TQZe8hTFM'
p176
I2
tp177
a(g16
S'1Ko2CYsxtJWKP3RPbLBmo9Te9BEChKsomp'
p178
I2
tp179
a(g16
S'1Hmx3ViYTtyrbajd3jtNcdKtV88skeWw4V'
p180
I2
tp181
a(g16
S'16xY8xYPkXVNCt7UtV11mbDJHpBfR6wsvW'
p182
I2
tp183
a(g16
S'1MDVYU7Ep7Rp6ZrRxRbokbiR2bLmDYPiEu'
p184
I2
tp185
a(g16
S'1ACBQ8PYzSFW2gcLSZDNnHEJqitpFSWFzc'
p186
I2
tp187
a(g16
S'13WZpaiHJxcqbF55D4rfr2f1DuFrpWVHwU'
p188
I2
tp189
a(g16
S'12WmbuQg1VmH8Yn44E5nXMYPu8y5LGSjmT'
p190
I2
tp191
a(g16
S'15nhasjGhyWub9Giofp8M8oricbdSSzGME'
p192
I2
tp193
a(g16
S'1Q28HKMKjVTavyNgziryUr9bSfMk2dokb8'
p194
I2
tp195
a(g16
S'1FMsV3N34RCtu5unKmwVzi9mVJayQjo8se'
p196
I2
tp197
a(g16
S'1967Ddcd5e3PHv9qyN1K6k8n6V5ZUo8spA'
p198
I2
tp199
a(g16
S'1KyzJnx3mm76iSckgv2mQDC4NjAaCYNmFN'
p200
I2
tp201
a(g16
S'1JUtkYk9HUmCJKZsZeYh1PffLVCPPQDNZc'
p202
I2
tp203
a(g16
S'15RsaL6bpCGoSzRrQ96pejJ1pbVLUQsPkY'
p204
I2
tp205
a(g16
S'15mbyf3zS36c1BDKS5iNTyPGLt318GCoMh'
p206
I2
tp207
a(g16
S'12WmbuQg1VmH8Yn44E5nXMYPu8y5LGSjmT'
p208
I2
tp209
a(g16
S'12WmbuQg1VmH8Yn44E5nXMYPu8y5LGSjmT'
p210
I2
tp211
a(g16
S'12WmbuQg1VmH8Yn44E5nXMYPu8y5LGSjmT'
p212
I2
tp213
a(g16
S'1JJd73LbQ7y39gAMJ8j5FfT5AgVBQPi8qx'
p214
I2
tp215
a(g16
S'14Cku1h6QTPtvNN3FqgFPvQ77tzeh2Ds2y'
p216
I2
tp217
a(g16
S'1Mv9RZBuADJHZnFnSQXATA34mqfFagJ63A'
p218
I2
tp219
a(g16
S'1GLQ8HkD8LacWETqh6UjjkbYRbMzC65egz'
p220
I2
tp221
a(g16
S'1GUCjfSKLbyickod6X28naWNL6UjiHU2TY'
p222
I2
tp223
a(g16
S'1B25cjpjXUmZcgaZrPphTULPtYSUhnv9e5'
p224
I2
tp225
a(g16
S'1NtvtCJrQSQnmT9teF5qgfBBiLZ9ciSkYc'
p226
I2
tp227
a(g16
S'1DaL1KEw6voZ8YWaSWK6Jjh9M96Fen9uUG'
p228
I2
tp229
a(g16
S'18pAbPeobKRDsFZcUuUtvFUsmmDVCQ3Rze'
p230
I2
tp231
a(g16
S'13hQygnep9EErahBxFk1BZyRukFbG8vpZ5'
p232
I2
tp233
a(g16
S'128pDwgVLcDErc6tdEe2AUdGWM4w6CamaH'
p234
I2
tp235
a(g16
S'1P1A25X7NcbA181Vm9iwahnC7Q63QJQdzJ'
p236
I2
tp237
a(g16
S'1LeuYW8S6UAJGU7nDu4A9XiD8ELD6cxdX2'
p238
I2
tp239
a(g16
S'1MQHcVD7KtrZkYBTRhzm5Uc795uSx3SLo7'
p240
I2
tp241
a(g16
S'1MqNr3rcmtbEeYHWpE1L5zeMUMnTpSFxwV'
p242
I2
tp243
a(g16
S'14QCwrsWhoBF7Q5YuHvjqHjVaWz6Lbh2of'
p244
I2
tp245
a(g16
S'181452J4ckVxFoH9PQz66nMGrED9sd3XTM'
p246
I2
tp247
a(g16
S'17vkD6jDHT3rrJn9kqAeCSwGEWekMSmBiQ'
p248
I2
tp249
a(g16
S'1BtaCfy3ExXB9tEKwaEvZPsbD6qJ82QdVm'
p250
I2
tp251
a(g16
S'1BYpM8HqN3oQCnmRbgsPLiyh3XGC5xhGVg'
p252
I2
tp253
a(g16
S'1Nb2NmttNFNy5u9PCUZWVfRRqLtmrp7CZm'
p254
I2
tp255
a(g16
S'18QudFr9a3Ku9SCsBPzky8aWnE8k47rE6M'
p256
I2
tp257
a(g16
S'1CFtNny7K4YB3Zp15F2at1tNxdFerejAnV'
p258
I2
tp259
a(g16
S'1D4wdEJTy1cXFmvJVC1hCgCxhpxVnqKjYB'
p260
I2
tp261
a(g16
S'1K1poz5SGprrEWiK2jhUBt9pft8JPsDVDn'
p262
I2
tp263
a(g16
S'1CtNq9ZgmaZyVByhXVMPGEtYXk7i41LRAp'
p264
I2
tp265
a(g16
S'1JW5ptTtVdQopd9xDcby8513b92DwrBCFQ'
p266
I2
tp267
a(g16
S'1QDKxKZQhDA31DSDro4JmMLB8YBZiRN5Qx'
p268
I2
tp269
a(g16
S'1H6p4MyKJrJD7txVRTqKC5LcLQqAsW5nr6'
p270
I2
tp271
a(g16
S'18Vq293ojzCxQxXfxHkUaNpJxjwVeAtCoP'
p272
I2
tp273
a(g16
S'1HUdq6rHwXGkjG2bW5UzGX9QdVuDgFwfme'
p274
I2
tp275
a(g16
S'14eyVnbww6MSb74bLiedPaY75Ggi24LN13'
p276
I2
tp277
a(g16
S'1NXRdqhmNHTubBih5QjaZQqYKrfrBUcfjQ'
p278
I2
tp279
a(g16
S'1EuovnrajTAZXqmhr5oMsWK562SeMseqbR'
p280
I2
tp281
a(g16
S'12KFJTsN4WY5iJ373t4TSg9X2QiLd33sX7'
p282
I2
tp283
a(g16
S'1NwZ89bpxDofgVPb3F1yVWu48vUNQYZtAX'
p284
I2
tp285
a(g16
S'12WmbuQg1VmH8Yn44E5nXMYPu8y5LGSjmT'
p286
I2
tp287
a(g16
S'1JJd73LbQ7y39gAMJ8j5FfT5AgVBQPi8qx'
p288
I2
tp289
a(g16
S'18AJnSFrMFUaFkX72f7NqhL6FRps9v1z8A'
p290
I2
tp291
a(g16
S'12wAbNhzHekT2eJow8AkY2Fh5pvbgr1eNc'
p292
I2
tp293
a(g16
S'13PzLsMd3MyrmZx3oRoSVhbxsYnzm6twW5'
p294
I2
tp295
a(g16
S'17eZ2hW4o74JKedAR8jq8YgzDpE1mUPpMo'
p296
I2
tp297
a(g16
S'1E6JAMtNHjgo6Zk7srNuCjXMCEh25z8yPF'
p298
I2
tp299
a(g16
S'1B9SLq2siqbjerTB7evMTdBNMBTyJ8pczM'
p300
I2
tp301
a(g16
S'1CaNpP95WF6uEUoWq3MYSkYPxQuqkiumDY'
p302
I2
tp303
a(g16
S'1G44NgP8qv1h97R34aqqoR3eRwTMPtuiQS'
p304
I2
tp305
a(g16
S'1PbjKV9o9EAt3dQ3XXBjCz5s7bfDo7nVds'
p306
I2
tp307
a(g16
S'1L5Koifyq1iETwpgWRFiWjUMniaNgodwGC'
p308
I2
tp309
a(g16
S'12WmbuQg1VmH8Yn44E5nXMYPu8y5LGSjmT'
p310
I2
tp311
a(g16
S'12WmbuQg1VmH8Yn44E5nXMYPu8y5LGSjmT'
p312
I2
tp313
a(g16
S'15nhasjGhyWub9Giofp8M8oricbdSSzGME'
p314
I2
tp315
a(g16
S'1PXoiqnS32CVQYzxqobc7qhoQVeoP2NKfy'
p316
I2
tp317
a(g16
S'1Gisgr18hRzUvXhAd3FrGpUGxvQk2XK4Kj'
p318
I2
tp319
a(g16
S'1QDvBCKbdsW96LJFPfSQPkjafy1GkTWNVq'
p320
I2
tp321
a(g16
S'1JKoUFmPnJMJwYoeRNKA2QvrdkbAxVWmVS'
p322
I2
tp323
a(g16
S'14qVA3vdEmM4tZAbzPDKAdTiCZPbXcozyy'
p324
I2
tp325
a(g16
S'1EUXTzvmfFaWtue7Wt5VSohhNjHqTrkSk'
p326
I2
tp327
a(g16
S'14cBKPwB6zcSZvixnGbv2NDLcPvZEg8fid'
p328
I2
tp329
a(g16
S'16naqdrWDoyj7cMRcBhAYXbqs8gV5jXhb3'
p330
I2
tp331
a(g16
S'1BMs7AzNyKagVkuPeVjZkTn4DvKdbsGhkx'
p332
I2
tp333
a(g16
S'1HjyK8Z3MahHbuaYojWC7o9rquBJeVYDfB'
p334
I2
tp335
a(g16
S'1QKyQqzBZCUYgpQsXcw6Zm41VWs1ccooiQ'
p336
I2
tp337
a(g16
S'1HvF8Ghe85kqDfx9kozVwncSggDPHmcZLh'
p338
I2
tp339
a(g16
S'1B1ZCLzYnyDBPmucpcTPSVsz6EN2dZmE5b'
p340
I2
tp341
a(g16
S'13JuqqfexiR4gic6mXMcLYrGgcERnNXBwL'
p342
I2
tp343
a(g16
S'1LvkB7HAmQXyvMHELgTTVXPZtNwfhYnybw'
p344
I2
tp345
a(g16
S'1E4HKpQqsqCBxeFU8n745rY8qC9Hw8h1ti'
p346
I2
tp347
a(g16
S'18dfqphre8anY4DKSvjPfv1og6B1jmrtt4'
p348
I2
tp349
a(g16
S'126xtjGH1emzs4WUTyUfm9JcP5TTYwkxgf'
p350
I2
tp351
a(g16
S'15seyj31UU7mBGwTTyz2KFywFQvjEHzAmK'
p352
I2
tp353
a(g16
S'1Hwhz1p6R6PqgoqdpHRiRTRHfpRuR5H4Sm'
p354
I2
tp355
a(g16
S'1HFeA7LdH7pD1ko35q8NVsMu1SiXNZ2dwT'
p356
I2
tp357
a(g16
S'1CcCsBs7K54FVpVuAdee7CaPBQrNvSBgtM'
p358
I2
tp359
a(g16
S'1P8Wb5kvcHx3WQRkunG4GfACcbdXwk4SgY'
p360
I2
tp361
a(g16
S'1J9wUEjbWSqR5AmUtw8nNcwiMsqVdHVASJ'
p362
I2
tp363
a(g16
S'1JKRDhp1qcW9PM9GuNcCGnfRRKD3xsPNEF'
p364
I2
tp365
a(g16
S'12WmbuQg1VmH8Yn44E5nXMYPu8y5LGSjmT'
p366
I2
tp367
a(g16
S'12WmbuQg1VmH8Yn44E5nXMYPu8y5LGSjmT'
p368
I2
tp369
a(g16
S'12WmbuQg1VmH8Yn44E5nXMYPu8y5LGSjmT'
p370
I2
tp371
a(g16
S'12WmbuQg1VmH8Yn44E5nXMYPu8y5LGSjmT'
p372
I2
tp373
a(g16
S'12WmbuQg1VmH8Yn44E5nXMYPu8y5LGSjmT'
p374
I2
tp375
a(g16
S'12WmbuQg1VmH8Yn44E5nXMYPu8y5LGSjmT'
p376
I2
tp377
a(g16
S'15nhasjGhyWub9Giofp8M8oricbdSSzGME'
p378
I2
tp379
a(g16
S'15nhasjGhyWub9Giofp8M8oricbdSSzGME'
p380
I2
tp381
a(g16
S'12WmbuQg1VmH8Yn44E5nXMYPu8y5LGSjmT'
p382
I2
tp383
a(g16
S'15nhasjGhyWub9Giofp8M8oricbdSSzGME'
p384
I2
tp385
a(g16
S'15nhasjGhyWub9Giofp8M8oricbdSSzGME'
p386
I2
tp387
a(g16
S'12WmbuQg1VmH8Yn44E5nXMYPu8y5LGSjmT'
p388
I2
tp389
a(g16
S'12WmbuQg1VmH8Yn44E5nXMYPu8y5LGSjmT'
p390
I2
tp391
a(g16
S'15nhasjGhyWub9Giofp8M8oricbdSSzGME'
p392
I2
tp393
a(g16
S'1JJd73LbQ7y39gAMJ8j5FfT5AgVBQPi8qx'
p394
I2
tp395
a(g16
S'1G5RZZdUKWDktY4KL3TEHzqWukVS5Bw39e'
p396
I2
tp397
a(g16
S'1Q26itwscfcFVktzSKyXTof2LEFJ9k8UTZ'
p398
I2
tp399
a(g14
S'14LgMJg35QPoVSqqkNFKrjWpvrAuG1sAXa'
p400
I2
tp401
a(g14
S'1F6cgunXRurmy67Wy4CGVAZFMSN67hzKoH'
p402
I2
tp403
a(g14
S'1F6cgunXRurmy67Wy4CGVAZFMSN67hzKoH'
p404
I2
tp405
a(g14
S'1MYSqB84EgrTrg6eyNZRLbAHpL7W18ey4w'
p406
I2
tp407
a(g14
S'1JY9pT8HYP4fA71WyTMSmKudSxx7nbYTnL'
p408
I2
tp409
a(g14
S'13DGzJtKydbjWMXq9XnuzRF9F62wutoa1D'
p410
I2
tp411
a(g14
S'1HHpBsiB1ndLq3WSBoUUmrBcPa6nFDboRF'
p412
I2
tp413
a(g14
S'1F6cgunXRurmy67Wy4CGVAZFMSN67hzKoH'
p414
I2
tp415
a(g14
S'1F6cgunXRurmy67Wy4CGVAZFMSN67hzKoH'
p416
I2
tp417
a(g14
S'1MuRavzKs7nwqzv6RkSLTSSi9wAPHpc1Kh'
p418
I2
tp419
a(g14
S'1LMDXCkMzCyCQq5uiSMXpE7dmoEFaxHoSm'
p420
I2
tp421
a(g14
S'12SZXybJwyhzdeKkouACq7U87EJBqCSvB7'
p422
I2
tp423
a(g14
S'1BZwRrG6Zaw9QQF8ERDJnZd2bE3Px8xDTH'
p424
I2
tp425
a(g14
S'15nhasjGhyWub9Giofp8M8oricbdSSzGME'
p426
I2
tp427
a(g14
S'12WmbuQg1VmH8Yn44E5nXMYPu8y5LGSjmT'
p428
I2
tp429
a(g14
S'12WmbuQg1VmH8Yn44E5nXMYPu8y5LGSjmT'
p430
I2
tp431
a(g14
S'12WmbuQg1VmH8Yn44E5nXMYPu8y5LGSjmT'
p432
I2
tp433
a(g14
S'1JCsNJFdZvpxG1qaPtKPNUwQqVDH2HSRJB'
p434
I2
tp435
a(g14
S'1FdGvNMniF5NUdQwTDUnLDYads753BLw5Z'
p436
I2
tp437
a(g14
S'1KitqhzvHBWbFkqcTFPCMndBU49kzBEG4F'
p438
I2
tp439
a(g14
S'1Lx9wAKRSgjWvT5QYcgy3iFk3tkmUagZK4'
p440
I2
tp441
a(g14
S'15mbyf3zS36c1BDKS5iNTyPGLt318GCoMh'
p442
I2
tp443
a(g14
S'12WmbuQg1VmH8Yn44E5nXMYPu8y5LGSjmT'
p444
I2
tp445
a(g14
S'12WmbuQg1VmH8Yn44E5nXMYPu8y5LGSjmT'
p446
I2
tp447
a(g14
S'1Lx9wAKRSgjWvT5QYcgy3iFk3tkmUagZK4'
p448
I2
tp449
a(g14
S'12WmbuQg1VmH8Yn44E5nXMYPu8y5LGSjmT'
p450
I2
tp451
a(g14
S'1rjmcHB4MKWCAWfqGrptpv3fBMkNk69VA'
p452
I2
tp453
a(g14
S'1NUz97xT92itLu6GKWmibRWXtTKvdv56qa'
p454
I2
tp455
a(g14
S'1Mq2ny3ka2AYUFAGCU443sHSaQF4wgmrTK'
p456
I2
tp457
a(g14
S'1EUqx9NX9KxUd6nr44pMCuyySQd5BcBVMU'
p458
I2
tp459
a(g14
S'1NwZ89bpxDofgVPb3F1yVWu48vUNQYZtAX'
p460
I2
tp461
a(g14
S'1Lx9wAKRSgjWvT5QYcgy3iFk3tkmUagZK4'
p462
I2
tp463
a(g14
S'12WmbuQg1VmH8Yn44E5nXMYPu8y5LGSjmT'
p464
I2
tp465
a(g14
S'1PU5roVoRSxxdbY14A6uLUx9tdFf8w1jJB'
p466
I2
tp467
a(g14
S'18LABTcsSH7LrcHG8k4YhqC6eR7gGqTzFP'
p468
I2
tp469
a(g14
S'13BpmbjmNMRRD3HghyBBjook2nizF8ktXD'
p470
I2
tp471
a(g14
S'1A6FDNXrp2n9wNDY4ZoezJW9AX85hhfaDQ'
p472
I2
tp473
a(g14
S'1GWhR8Uh9M5bzKZrA2Lbe2pRGtC9RWVgmd'
p474
I2
tp475
a(g14
S'1tcnJKzsuaGY45DbeFvPv8bmZP3CCieMh'
p476
I2
tp477
a(g14
S'16pGFPnDqTkZycMcrJhPMNrF7XBN8ZUnfS'
p478
I2
tp479
a(g14
S'14Y9wuHoyxsBKFiJqKnysv93bYPVBihqGw'
p480
I2
tp481
a(g14
S'1L8PEHZG4qTJmJ9i8P7Mok7CoLEzC9vnTn'
p482
I2
tp483
a(g14
S'1M4ow8XS79BXdKAC85qWWmKWQeeuRWMnbG'
p484
I2
tp485
a(g14
S'14DdJbKaELtc4aX4faLpMmJRMjeLYJeaVT'
p486
I2
tp487
a(g14
S'1CSspug4eKvKmGU18FvTScm3vVyjmfSZPs'
p488
I2
tp489
a(g14
S'1ESR4u4pj2ZGdLP3EGXiK9kyoWNn4gNZH'
p490
I2
tp491
a(g14
S'1FUbo3D4JETg9igbGESxSDzZ6NQojWrhZN'
p492
I2
tp493
a(g14
S'1AW2Wqhu42JbfE8rpFmFbLhEP4E4E89nFk'
p494
I2
tp495
a(g14
S'1H1q2jZsxu2M8Udkdg7rwFYD5LCgpYREpG'
p496
I2
tp497
a(g14
S'1CP8XES4mT1gTTZwAkwzB5PpJWCvbQwo9M'
p498
I2
tp499
a(g14
S'174e91afY1EDjXKhg2BtykmkhBCzPMvmY2'
p500
I2
tp501
a(g14
S'1PT6M81ZgHnH8t33ibmZB931hwfkdf8fPL'
p502
I2
tp503
a(g14
S'13v2FPDqeKjEN3ByHvhijsY6Fcm2H3kzSQ'
p504
I2
tp505
a(g14
S'1Pi9gtchh3Jpn5spcyXdkimpGXwAcFjcgM'
p506
I2
tp507
a(g14
S'1JugR4uYbUMMsMsHdgCoSirKKrb2s6baoW'
p508
I2
tp509
a(g14
S'1DsmiGpsHQp4T6ihpSryFLFzs2EA5mhHTx'
p510
I2
tp511
a(g14
S'1AmSDud7sNdekoA673FtWHeDbpqiJAsZd8'
p512
I2
tp513
a(g14
S'1Fihsg47MfFaXDCwwgt1cg8KpkxQX8oMyZ'
p514
I2
tp515
a(g14
S'13DQh5dej2NVQjyRb9XtYCEceGuXRtFox7'
p516
I2
tp517
a(g14
S'1GXdvEvbHaZK54TJ1dNu1g86cJ7MFtwELA'
p518
I2
tp519
a(g14
S'1FWM14hiMN9p4AoXvSp9HXPj3hA2GYiwS2'
p520
I2
tp521
a(g14
S'18fXwWKsBPb5XWMzVkABbL97aGJh5zxcsv'
p522
I2
tp523
a(g14
S'1Et33gfLUNyZSWxufjbBfBnM8HY1gh671a'
p524
I2
tp525
a(g14
S'1Ew7f83y9jCJPd3kTN5ktN3LQpbBg6mpoJ'
p526
I2
tp527
a(g14
S'17t9oQityD1AwkSSgjdRH8DeKzarXNTvei'
p528
I2
tp529
a(g14
S'1BeTZtUA8W63QvHaxF82bCwVfJpXKdVpG6'
p530
I2
tp531
a(g14
S'1HoGgvVvfxu5ETFmg5ByJwteN7aAJnw1HV'
p532
I2
tp533
a(g14
S'18LvzAR3T9Lf1XCH9CK644xhZC9qY2R81a'
p534
I2
tp535
a(g14
S'1L7bsUu1BGKwCKaGyS58cbtEyFUzY3DnA8'
p536
I2
tp537
a(g14
S'1Cakdy7tUdCn2f3uMLzE8Px28TvUyuUu3z'
p538
I2
tp539
a(g14
S'12XVe861nxVXny3ARGu2YxeP9xEWBh6k6o'
p540
I2
tp541
a(g14
S'1Jnx1mbZvUw1VdaCz5ZjSke5gMyVjhXwWi'
p542
I2
tp543
a(g14
S'17bXmt8fUDAKMuF639dG2dc32WcofiREWS'
p544
I2
tp545
a(g14
S'1LebzaiJbkYpjn8fkeH1JNQRUWpdWGLPnW'
p546
I2
tp547
a(g14
S'1J26ixKqz7MeCJqq4NwjUNcrxWSYUYzA1X'
p548
I2
tp549
a(g14
S'1MmodM3H6DeW9iy76HaNrC6pCmRJMFLFHj'
p550
I2
tp551
a(g14
S'1BeCqsYWrw1f832BofZm5QDtdh89faZRZg'
p552
I2
tp553
a(g14
S'1GVewAzuoeHDwbP2EVWeEGBUkFrfaidZDW'
p554
I2
tp555
a(g14
S'1BSEAXZpJRubrygzK1dp4aLHuL1zjtoZfh'
p556
I2
tp557
a(g14
S'1AbXDN4q4dFe1TNvdd4CgSJQNrqwEk1sD5'
p558
I2
tp559
a(g14
S'1AbXDN4q4dFe1TNvdd4CgSJQNrqwEk1sD5'
p560
I2
tp561
a(g14
S'1A3QmEdDYS2uL5ZQnmEWhSj5kRgWoekNvd'
p562
I2
tp563
a(g14
S'1N58kUu53QeUAiGKtn7hbydWiMDCjKKvDe'
p564
I2
tp565
a(g14
S'1PN89PJ6r2oPGpHFPeFCuYfR2EKZ9PQex5'
p566
I2
tp567
a(g14
S'17FM2rX3G698BzHZipiU4pZp87HQLiHJYx'
p568
I2
tp569
a(g14
S'14Zjm5WJMePDxLF2qQ7pSFcVE2tnmGgshC'
p570
I2
tp571
a(g14
S'1M4no5bVmE8tpbMZrnJAMFmfWeavhkrjYB'
p572
I2
tp573
a(g14
S'1ntiRkKcWMNvcSAZe8jHUB6W9FSWr9Kip'
p574
I2
tp575
a(g14
S'18jTw6H6AB3XjGBaU7UwjTmfU19j3xvygD'
p576
I2
tp577
a(g14
S'19NFBnY9uD7QN2ZJMGuouFhQe9DC8H4ZhE'
p578
I2
tp579
a(g14
S'12Bhp86N3JsWAvkKUrz4nBCqSjmK3PFyiB'
p580
I2
tp581
a(g14
S'1YaBWTPECmzqzjazXSETsmpy8mpUbCpFm'
p582
I2
tp583
a(g14
S'1DKCYVRRYBjrjsHgJUFh6EXvaUYsnDfhjy'
p584
I2
tp585
a(g14
S'143QzTE3ovbDP8h5dM8tb6MHdtRLybaQWo'
p586
I2
tp587
a(g14
S'1CQ79YqHEwvwnkNN8ZLMrqAr6tYNGrjZ7g'
p588
I2
tp589
a(g14
S'1FyFNBsU8dZ1e7HsN534mVrj9vf8M4Rtdp'
p590
I2
tp591
a(g14
S'18hdNecGc7ncPraKWG41BwDnnw5h9dyn1p'
p592
I2
tp593
a(g14
S'1Lt7WAeRFe2RatozTnAKUGJX95NKSi5Dpp'
p594
I2
tp595
a(g14
S'18wpAkdca315fpin7Yq1UU4d4EAcqcfT9m'
p596
I2
tp597
a(g14
S'1Ja9bg97MXq1HsFpupL47ZphJWptcPKFP5'
p598
I2
tp599
a(g14
S'16anpaV6T1zkR195Gw66NN5uicU6fmEkP9'
p600
I2
tp601
a(g14
S'1Lnt9p5Gv81gZ72ZShvG34p8tZ2Mobvvw9'
p602
I2
tp603
a(g14
S'1LYobMVTsJ2scx4xY7tJzpcCNgktAY5AeE'
p604
I2
tp605
a(g14
S'15ANokXoqA3jMws53rg5TDArTj9Kk2sPy1'
p606
I2
tp607
a(g14
S'16bc9SqgwxEaX2QWCxSoxJyah7qDm8efsS'
p608
I2
tp609
a(g14
S'1EK1AeMWX1SP9Hci7UhvXAZpjU3LXgcq1Z'
p610
I2
tp611
a(g14
S'1AVBi7XgxQynHjfCW2TAmMvse2ZKCWanyK'
p612
I2
tp613
a(g14
S'1a8baaDDKu8hp6KwpmV5irVZMR7nqt5ks'
p614
I2
tp615
a(g14
S'1MDxFxJWsE2upziHXQJUX7Rv2Ga9dh7qyq'
p616
I2
tp617
a(g14
S'16JcDn7cxLkW4199b2xvWvKxc4h57mPZW5'
p618
I2
tp619
a(g14
S'13DgXYGB2utbrRHupPe5t25X6v5baGXAJa'
p620
I2
tp621
a(g14
S'14jmj9gViZ7V7Xn5nNJWHd5PkxkFTC9bCn'
p622
I2
tp623
a(g14
S'14573N7MB7UZZpQ6KRQat83HwCNCJorsDR'
p624
I2
tp625
a(g14
S'14Zjm5WJMePDxLF2qQ7pSFcVE2tnmGgshC'
p626
I2
tp627
a(g14
S'1Lt7WAeRFe2RatozTnAKUGJX95NKSi5Dpp'
p628
I2
tp629
a(g14
S'1GACXt1zCdBcTQSNmjJZtLePt7dxmvr2gr'
p630
I2
tp631
a(g14
S'198z6osif4QUqdKENHXgcFpawtt4ZEtENp'
p632
I2
tp633
a(g14
S'1MvMLKZXfTcLv447Mjw6uM1jwqsSYYEyz1'
p634
I2
tp635
a(g14
S'1Dbe5U97jE9UnuhoTgrWurML838bjbFoxP'
p636
I2
tp637
a(g14
S'17iGhwKKP2ckJc2vpts8Ews7KufKKirgPz'
p638
I2
tp639
a(g14
S'1G5fTCV1823Ky1XmG6fPp9vfUPdL1Yu4ZT'
p640
I2
tp641
a(g14
S'1JkCNiRWkXZLbToe4vM7dFCiudidXabYSH'
p642
I2
tp643
a(g14
S'1JsC8aFvWcpWDZN8HXydrdmSUcu1tKJ9B'
p644
I2
tp645
a(g14
S'1MQRueb6hh1H5mAiDEMZ3kTDqNzAhhAs7b'
p646
I2
tp647
a(g14
S'13eKP5J17Kniod4KK7rfE5dfcGZw5aQVGN'
p648
I2
tp649
a(g14
S'1CcX8P8QHA9p33cu4V9FJ7CZKbjtuqPqwX'
p650
I2
tp651
a(g14
S'19PPsJKYV8c1wo7n73b6pXueGaAbuTCihw'
p652
I2
tp653
a(g14
S'1AW8kfH2Cvcp8V39e2WyWeKNeyuLRLpy74'
p654
I2
tp655
a(g14
S'112YeMUbt3DXf2t6xdbaggDFmKGjXM8GGA'
p656
I2
tp657
a(g14
S'1KCFafN7Zps3SNgiBAi28jJLJ5kjrTRPZC'
p658
I2
tp659
a(g14
S'19Azt89sCaZx3bT79jLCbrLM4bYtnjqhNN'
p660
I2
tp661
a(g14
S'1JWsMprKqubH8MFF5yurZ6fYux5ZYRQm3D'
p662
I2
tp663
a(g14
S'14n3yixGQcnW4upteM9pyPTApHEUmLYW7W'
p664
I2
tp665
a(g14
S'12mVFtuRV3NceaNRxomMYwHefFmAxRS48C'
p666
I2
tp667
a(g14
S'13f7T2SztR9zqbAvnr8DMcfCxL4k8oVZmS'
p668
I2
tp669
a(g14
S'1G9DseeoT6BPqayXh23ZHeoHCYkz6KNSAv'
p670
I2
tp671
a(g14
S'1GvtX2SudH7AAPLJH4TWpjL7HaPUBbpck6'
p672
I2
tp673
a(g14
S'1vpEH9AyuqcTiNBUkztNFsAbjgZMnWUcs'
p674
I2
tp675
a(g14
S'12mjyHPXgA8P68SBuoktMEFpaXYDGC734A'
p676
I2
tp677
a(g14
S'1Q97H3mUoeVFj84B1L2LhnBxbABDSpoAQX'
p678
I2
tp679
a(g14
S'1M5z3TctwtaPD4dfGVnM6msouUqLggwJGu'
p680
I2
tp681
a(g14
S'1Et3jDAPXDGUhvt4gswDx4c16LBUd6Ygc5'
p682
I2
tp683
a(g14
S'1KceTvEr5sC1Agg3Ntiy1NJ9pdyZ3PCEgn'
p684
I2
tp685
a(g14
S'1DJKYffiSMVDxQsx33GoAyVXTnjktgw6Qm'
p686
I2
tp687
a(g14
S'16fbvij1TCDVRBnCNEzp9xbChcdsFPzVbc'
p688
I2
tp689
a(g14
S'17BdwC7Rh3uEpmkZA5of6QCjWZUzxswNRP'
p690
I2
tp691
a(g14
S'1LxrhmTHBH5J38s3w8RqkVBDkiUEW89NcF'
p692
I2
tp693
a(g14
S'1KkqS1J3Cvpw5Vu2sqEXf8kHhqN2xHyGS5'
p694
I2
tp695
a(g14
S'12ERWaDxey9yBrRPiMJtdW1rejQAM3p1sa'
p696
I2
tp697
a(g14
S'1PR22Gqir67ixD3fTjiEGZgfXDpX9hvPok'
p698
I2
tp699
a(g14
S'1LreRfvC7y2xHjPQgsca7xJhExDG6fRfUF'
p700
I2
tp701
a(g14
S'1Lk6AnhJRJeCLDctA6HrMQBRLCy2MQVnzP'
p702
I2
tp703
a(g14
S'1J8LaiWXbFz8WerUej7GY1v2Zn9MkzVKBG'
p704
I2
tp705
a(g14
S'1DGekd35A2DTxQLag5WMikvm8GV9F85j8X'
p706
I2
tp707
a(g14
S'12z2SZfA9vHHNRcFce9Cq9cdPSdiPfrDtT'
p708
I2
tp709
a(g14
S'1MsCc5sQ2uUEAFgRPr8tFKD9gDJpE8y7g8'
p710
I2
tp711
a(g14
S'1FdDxVE1nYDewNJSR3parkeJj5LcqnoqXy'
p712
I2
tp713
a(g14
S'1AKi7VCkzP7wQmRUiqjiMFUuhbd7ENL3CQ'
p714
I2
tp715
a(g14
S'1LLPR5GGKG2Bd6YVQAzTxtWT5nr1jWwP54'
p716
I2
tp717
a(g14
S'18sDcsRbUNBgq8BMjWEZ4vkJMhdYgeCqSQ'
p718
I2
tp719
a(g14
S'1Lj2iQ556kg6HgYCLqViuUia7wXmWuuxdF'
p720
I2
tp721
a(g14
S'1L9affG7PHpXpw31oWKckhAKdS6gdgfuWq'
p722
I2
tp723
a(g14
S'1Q5d74y7H3AfzynhwbcmudaUxLfDVc3T2d'
p724
I2
tp725
a(g14
S'19FzkmNPjAzxJFnZViq69BpmTkFmhvbsx3'
p726
I2
tp727
a(g14
S'1KxVpArqjSZXREHD2oNkmgkJQoJMXSHSxP'
p728
I2
tp729
a(g14
S'1FX1mWr6VVKJ7E6fPrbmCrLRJAs7SgbdRQ'
p730
I2
tp731
a(g14
S'19SEwMzZFcXjfPZPtKyMwvEJtziPTVDgVR'
p732
I2
tp733
a(g14
S'1HnjXhetdJq1swnjWGX9cH212zNVJUWJbi'
p734
I2
tp735
a(g14
S'1HT5hkHSnBE7AaUnZN7giKMPjjYJkY6Nh9'
p736
I2
tp737
a(g14
S'19xMjgnaoYFCZw6wTWa5Rqse5SAUFqCq7h'
p738
I2
tp739
a(g14
S'19dPDkrJq4ChtLggxcpQ6Qk79GX9gQmGar'
p740
I2
tp741
a(g14
S'1HrUtZfVwBrptTpo6BSkHZ3ZBJGJfpcCW8'
p742
I2
tp743
a(g14
S'1GZRkRsoEqNtFehbt8wsunNN85ctzsp34W'
p744
I2
tp745
a(g14
S'13mmCNhKkBvswqhhj37rBU8g5oz4RehPad'
p746
I2
tp747
a(g14
S'1EUQH9q8TjvVm9c8LAHfW6cRNGBUHTthqJ'
p748
I2
tp749
a(g14
S'1EdCXsXBTXBLyJe5uoaZ2LLcg1YKxE4En8'
p750
I2
tp751
a(g14
S'186CKtLybLxqt4QuUttrypnnTh4Qr6R4w3'
p752
I2
tp753
a(g14
S'1PrHm4XiETGk8Ht5S7Pd6NBppZHKvKS5P1'
p754
I2
tp755
a(g14
S'1JRph7SqJ2aizeG2euaiwqP7tHgzs76pB4'
p756
I2
tp757
a(g14
S'14YfJPPzWsHx1tLQpDu6MxzfKcJD5jpc1q'
p758
I2
tp759
a(g14
S'1K91s83Sgq8pFczBMNpYu7SzqYbxk6qRG3'
p760
I2
tp761
a(g14
S'1Ncbq8mmeVUEpcg1FjDCpJjkQom8vMeSK8'
p762
I2
tp763
a(g14
S'1QJ4HCrxpmgFYmh47vHw8puBnkhPxmfysp'
p764
I2
tp765
a(g14
S'12tG48NWabzmvDSNKagMFYsxvKLXcCD9zB'
p766
I2
tp767
a(g14
S'1DKRWnGEnavKLM54sFcSngfAG4GCLvx4YP'
p768
I2
tp769
a(g14
S'1L6R61MswZP3TYaUFaotqTBRRXrHAzfWCj'
p770
I2
tp771
a(g14
S'18iKqveCGhajV2iRVMmn7VjidmPjuqUv9L'
p772
I2
tp773
a(g14
S'1DDbikSpanFPbbLchqf1FerXT37MUXD5fq'
p774
I2
tp775
a(g14
S'188C538MEkpDSAZDFMLEq1d7XDJJxzFJBw'
p776
I2
tp777
a(g14
S'17h9ai6bfteQiDxurwMGgDjD982EU7Bc8E'
p778
I2
tp779
a(g14
S'1EJpYrcQx9dsxfe3WKEdUpGZF5G9ApftKr'
p780
I2
tp781
a(g14
S'1EwK2uKhsKTmTWaPAwJ7Xk8644FBC4AH2E'
p782
I2
tp783
a(g14
S'1Mh8L3TKDqCBbwA89g3KwTKd558EDrje9W'
p784
I2
tp785
a(g14
S'1JyRiB1x2kAskWNbGYj4NvRygZJpANjZdc'
p786
I2
tp787
a(g14
S'17wTzmY14nhADPJWx6mEjwSj3UGFL36z9K'
p788
I2
tp789
a(g14
S'13WHQLtPFx896pGvJSqeyjuGQfuWFgtkVu'
p790
I2
tp791
a(g14
S'12PcKoCZedS6mHeETuPVvuJm87KzFVNLLR'
p792
I2
tp793
a(g14
S'113zN73djqS2dnXYCRnBCbQcCMJfrbb89b'
p794
I2
tp795
a(g14
S'1mfKVDm1th5eSZhtH8eZCwBrftTx4BJL4'
p796
I2
tp797
a(g14
S'14Rg3FXtC8pL95jvcu5ggJd95c1zHckGtz'
p798
I2
tp799
a(g14
S'12LByghikCV2taNPrTvfpyZQDYWA166A8w'
p800
I2
tp801
a(g14
S'1CKs5AwkyzK5qcfMxHmVyVe3Gbtk1V4hnZ'
p802
I2
tp803
a(g14
S'1LaC3FQHSDkNDTetXzKG5DDuHTQPpgpDMV'
p804
I2
tp805
a(g14
S'1D3V3KHa1AFwABSwgd6ofPyXHuM1MX5EFA'
p806
I2
tp807
a(g14
S'1KcD9kW1rzzFudjuJU8MeVFUemcKnzCiMk'
p808
I2
tp809
a(g14
S'1NW1z8R4SX6azu62w3hbNmJ6wiH8u1M89t'
p810
I2
tp811
a(g14
S'12KHMC81cYgDVLtTbWDCxbf2TctaCEs8zm'
p812
I2
tp813
a(g14
S'18GjALhYcXrNGiCFras2UK9jZ69RyUwTD1'
p814
I2
tp815
a(g14
S'1DFfqtyd9nZwMLNVJxPgr8fsTyL2yAck9j'
p816
I2
tp817
a(g14
S'17ftEYEjF9KcUoCTUUZBQZwoLtorNcKyt8'
p818
I2
tp819
a(g14
S'1NLZDF8q6Fxfo7DxwwBgcfMzsLYhAG87N9'
p820
I2
tp821
a(g14
S'15zEWBX2HWJicx78P9xREzhPBbxgT7dAxN'
p822
I2
tp823
a(g14
S'1LDq7K5S3pqVFCEwvPiNNd5PdXisxfZH7G'
p824
I2
tp825
a(g14
S'1Lx9wAKRSgjWvT5QYcgy3iFk3tkmUagZK4'
p826
I2
tp827
a(g14
S'12WmbuQg1VmH8Yn44E5nXMYPu8y5LGSjmT'
p828
I2
tp829
a(g14
S'1Lx9wAKRSgjWvT5QYcgy3iFk3tkmUagZK4'
p830
I2
tp831
a(g14
S'1Lx9wAKRSgjWvT5QYcgy3iFk3tkmUagZK4'
p832
I2
tp833
a(g14
S'12WmbuQg1VmH8Yn44E5nXMYPu8y5LGSjmT'
p834
I2
tp835
a(g14
S'12WmbuQg1VmH8Yn44E5nXMYPu8y5LGSjmT'
p836
I2
tp837
a(g14
S'1Lx9wAKRSgjWvT5QYcgy3iFk3tkmUagZK4'
p838
I2
tp839
a(g14
S'1Lx9wAKRSgjWvT5QYcgy3iFk3tkmUagZK4'
p840
I2
tp841
a(g14
S'12WmbuQg1VmH8Yn44E5nXMYPu8y5LGSjmT'
p842
I2
tp843
a(g14
S'1Lx9wAKRSgjWvT5QYcgy3iFk3tkmUagZK4'
p844
I2
tp845
a(g14
S'12WmbuQg1VmH8Yn44E5nXMYPu8y5LGSjmT'
p846
I2
tp847
a(g14
S'1Lx9wAKRSgjWvT5QYcgy3iFk3tkmUagZK4'
p848
I2
tp849
a(g14
S'12WmbuQg1VmH8Yn44E5nXMYPu8y5LGSjmT'
p850
I2
tp851
a(g14
S'15nhasjGhyWub9Giofp8M8oricbdSSzGME'
p852
I2
tp853
a(g14
S'15nhasjGhyWub9Giofp8M8oricbdSSzGME'
p854
I2
tp855
a(g14
S'12WmbuQg1VmH8Yn44E5nXMYPu8y5LGSjmT'
p856
I2
tp857
a(g14
S'15nhasjGhyWub9Giofp8M8oricbdSSzGME'
p858
I2
tp859
a(g14
S'1Lx9wAKRSgjWvT5QYcgy3iFk3tkmUagZK4'
p860
I2
tp861
a(g14
S'1Lx9wAKRSgjWvT5QYcgy3iFk3tkmUagZK4'
p862
I2
tp863
a(g14
S'15nhasjGhyWub9Giofp8M8oricbdSSzGME'
p864
I2
tp865
a(g14
S'12WmbuQg1VmH8Yn44E5nXMYPu8y5LGSjmT'
p866
I2
tp867
a(g14
S'12WmbuQg1VmH8Yn44E5nXMYPu8y5LGSjmT'
p868
I2
tp869
a(g14
S'15nhasjGhyWub9Giofp8M8oricbdSSzGME'
p870
I2
tp871
a(g14
S'19noZgZpSgPyWQsXhNtCQ45Ynczs3ywJuD'
p872
I2
tp873
a(g14
S'165ySNnrE7T4ai9Ug5zuQmjrXDibvkCrUq'
p874
I2
tp875
a(g14
S'1M8GgHE5XkfTy31wfFZBFXQidrTmAYd8UF'
p876
I2
tp877
a(g14
S'15b9fcc5dmxSWGYLC9wAJaig5wAhMSvNN2'
p878
I2
tp879
a(g14
S'1CW8k29iwzzSFQXF1FHmYpqZQU4WQ1jaZK'
p880
I2
tp881
a(g14
S'1NWMQw9JqDTpV3WryUfeg4vaEztJq3QuKX'
p882
I2
tp883
a(g14
S'176tdfCjQvC8UkKg4VW6n1aa8af15R8tgN'
p884
I2
tp885
a(g14
S'197Pj6J4WysJ1dkLDYVqbENvyR47cANisJ'
p886
I2
tp887
a(g14
S'1LBYVayaSGKg6tVGc6zx1HSywdTT1L2Da8'
p888
I2
tp889
a(g14
S'1Lx9wAKRSgjWvT5QYcgy3iFk3tkmUagZK4'
p890
I2
tp891
a(g14
S'1Lx9wAKRSgjWvT5QYcgy3iFk3tkmUagZK4'
p892
I2
tp893
a(g14
S'12WmbuQg1VmH8Yn44E5nXMYPu8y5LGSjmT'
p894
I2
tp895
a(g14
S'15nhasjGhyWub9Giofp8M8oricbdSSzGME'
p896
I2
tp897
a(g14
S'15nhasjGhyWub9Giofp8M8oricbdSSzGME'
p898
I2
tp899
a(g14
S'12WmbuQg1VmH8Yn44E5nXMYPu8y5LGSjmT'
p900
I2
tp901
a(g14
S'12WmbuQg1VmH8Yn44E5nXMYPu8y5LGSjmT'
p902
I2
tp903
a(g14
S'1Lx9wAKRSgjWvT5QYcgy3iFk3tkmUagZK4'
p904
I2
tp905
a(g14
S'15nhasjGhyWub9Giofp8M8oricbdSSzGME'
p906
I2
tp907
a(g14
S'1CRBZVhEQbNp7RqLrCCtkNgfKxTf13WowN'
p908
I2
tp909
a(g14
S'1Fc8fCmfypjLd1avDRGaVfgrFPv6Uyn5cN'
p910
I2
tp911
a(g14
S'1CAUpXVE7vZzgeCstS1UQG7UkNCeAKqHXZ'
p912
I2
tp913
a(g14
S'1FAY6hpLviQXBjM8KGirbZCaRZQwUp83Ka'
p914
I2
tp915
a(g14
S'1D6auz83CShWpMKpTTf4yFXJQXRFcpBc64'
p916
I2
tp917
a(g14
S'1JFRuyxeBdnCpXAs5fjUaVAy79DfvQkvcD'
p918
I2
tp919
a(g14
S'19NuMr3wd113QbRPppRErNzggrth6TyR4j'
p920
I2
tp921
a(g14
S'174o7KofZzZWyqW96EZBUnutDSCEGvMfGU'
p922
I2
tp923
a(g14
S'14dZmUm1BvABsJcoA9ZU53jox5gz5XjuGd'
p924
I2
tp925
a(g14
S'16P2DPG1uTFMMGwMZjnfK5ZSKAcqAJ71NF'
p926
I2
tp927
a(g14
S'12WmbuQg1VmH8Yn44E5nXMYPu8y5LGSjmT'
p928
I2
tp929
a(g14
S'15nhasjGhyWub9Giofp8M8oricbdSSzGME'
p930
I2
tp931
a(g14
S'12WmbuQg1VmH8Yn44E5nXMYPu8y5LGSjmT'
p932
I2
tp933
a(g14
S'1Lx9wAKRSgjWvT5QYcgy3iFk3tkmUagZK4'
p934
I2
tp935
a(g14
S'1Lx9wAKRSgjWvT5QYcgy3iFk3tkmUagZK4'
p936
I2
tp937
a(g14
S'19iLG12exL5SmpUZeJR5GrysE2QkSWdZjc'
p938
I2
tp939
a(g14
S'15nhasjGhyWub9Giofp8M8oricbdSSzGME'
p940
I2
tp941
a(g14
S'1Hq7G98T3tGANTyrgzWTtZCqZdXeeb22CG'
p942
I2
tp943
a(g14
S'19qoNeBJGsJPnagTprGY5KSEzZVZws3Lss'
p944
I2
tp945
a(g14
S'13BXij41Bqy5QmsHuASkSzseRhFcGabXxZ'
p946
I2
tp947
a(g14
S'14chc3YMpj61LcMSUTWL86VnNk6uvrjuzZ'
p948
I2
tp949
a(g14
S'17zDKbM7m1Z35f96TxMKarigF48xmfz7RA'
p950
I2
tp951
a(g14
S'12WmbuQg1VmH8Yn44E5nXMYPu8y5LGSjmT'
p952
I2
tp953
a(g14
S'15imv5NekGKTTCqFN4AVY2x1R3NnszfMbi'
p954
I2
tp955
a(g14
S'12WmbuQg1VmH8Yn44E5nXMYPu8y5LGSjmT'
p956
I2
tp957
a(g14
S'12WmbuQg1VmH8Yn44E5nXMYPu8y5LGSjmT'
p958
I2
tp959
a(g14
S'19iLG12exL5SmpUZeJR5GrysE2QkSWdZjc'
p960
I2
tp961
a(g14
S'13tBDWEkwTKj42JAHvHDbjhBCriNg35Gin'
p962
I2
tp963
a(g14
S'1PoUtBzUPy7pqWzodMohqVUi7mjx9wsysK'
p964
I2
tp965
a(g14
S'1KzWGmgoVdXBDhtajqnLxkqt9VJwFAHyqx'
p966
I2
tp967
a(g14
S'12RcHS7QbGhwh7bM3sbJfrvJKJ8r6BKF8M'
p968
I2
tp969
a(g14
S'1CXQ1hp9MJjTqL7mnhDDxRrZMbEdadPsa7'
p970
I2
tp971
a(g14
S'1P3arqkRJ8BrDNR253u2wnKDSebTLnpTeH'
p972
I2
tp973
a(g14
S'1AU26Vjbh1YCC3NCLkebonEPUy62PW2kyZ'
p974
I2
tp975
a(g14
S'1K11JTnq7S6pK5WRcyenJkCeeRk9fwvVfs'
p976
I2
tp977
a(g14
S'1Lp8f62KhQ27sBHL8LGiDdTwPt8Rut3do5'
p978
I2
tp979
a(g14
S'1L2PZPboPz76aBwoTk9mkcUujA61z6AxJv'
p980
I2
tp981
a(g14
S'1BhmuL13YLofPXnzXFcjcNpdGcNqRYdZfx'
p982
I2
tp983
a(g14
S'15imv5NekGKTTCqFN4AVY2x1R3NnszfMbi'
p984
I2
tp985
a(g14
S'1PyrxAsbRenHqjeUJwDqVKBd3s5KjFiar3'
p986
I2
tp987
a(g14
S'17MBHcqaJj2kD8ntcRoqmsKXP8MbXvLNzQ'
p988
I2
tp989
a(g14
S'1PrqDDXzqvPHgkyh4WvFiTeGCmKi46V9M7'
p990
I2
tp991
a(g14
S'12WmbuQg1VmH8Yn44E5nXMYPu8y5LGSjmT'
p992
I2
tp993
a(g14
S'1L2PZPboPz76aBwoTk9mkcUujA61z6AxJv'
p994
I2
tp995
a(g14
S'19oZf1xpuEFKRsrcZQeSDKkFvdXj68mauH'
p996
I2
tp997
a(g14
S'1PHB9eTuoAurbZZ1MbFC5XeS5XNz16EwWa'
p998
I2
tp999
a(g14
S'1Ma2hcP9BP4FWZ8xNqdGKi3o7Wq9voYfVn'
p1000
I2
tp1001
a(g14
S'19EbQESpPLPt61c28ueF3nnm5LhNgLwMkn'
p1002
I2
tp1003
a(g14
S'1TS15UVuinupUd4mQfLit4u6PJGPXNwBq'
p1004
I2
tp1005
a(g14
S'12WmbuQg1VmH8Yn44E5nXMYPu8y5LGSjmT'
p1006
I2
tp1007
a(g14
S'1BhmuL13YLofPXnzXFcjcNpdGcNqRYdZfx'
p1008
I2
tp1009
a(g14
S'1GgGswnGqpkU5iR6acLdzbhxGiMkUbZarW'
p1010
I2
tp1011
a(g14
S'1KB9fETChFPmDwKaWe4LkRAJcv2NV9WtqP'
p1012
I2
tp1013
a(g14
S'1EeXmRBq12nnsLmKyp6uXAAwxM7NzGoJWv'
p1014
I2
tp1015
a(g14
S'1NumkQc3ZrLMi7AGYdy5tpfvJUkbJaD99a'
p1016
I2
tp1017
a(g14
S'1CTH9qzccLK3n8DuXTHDeW4ZW4WkPLTRVf'
p1018
I2
tp1019
a(g14
S'17TK1YpdFfs6Y8VZsXsmeU2XyTgvTYEw6S'
p1020
I2
tp1021
a(g14
S'15PZTXeF87jpvS1nVZ4KX5qzLXC7GoMfyx'
p1022
I2
tp1023
a(g14
S'1EzzV3Nc2Dh9FeBme3tywNhsgTGwYWSfkT'
p1024
I2
tp1025
a(g14
S'1ERUKi5GW9twQ5z5NmJPzYzPX9sXBA68fv'
p1026
I2
tp1027
a(g14
S'12WmbuQg1VmH8Yn44E5nXMYPu8y5LGSjmT'
p1028
I2
tp1029
a(g14
S'12WmbuQg1VmH8Yn44E5nXMYPu8y5LGSjmT'
p1030
I2
tp1031
a(g14
S'12U6DS8ogTF6pnagTXWAMBtSrCKZmLActG'
p1032
I2
tp1033
a(g14
S'12WmbuQg1VmH8Yn44E5nXMYPu8y5LGSjmT'
p1034
I2
tp1035
a(g14
S'12WmbuQg1VmH8Yn44E5nXMYPu8y5LGSjmT'
p1036
I2
tp1037
a(g14
S'1KJuPyqZMtUrsyCpMQjQ4mxyvxL7fHW8z5'
p1038
I2
tp1039
a(g14
S'1CSRWqt9PtrRavL15ZnfHTx4BzdWBQJf3V'
p1040
I2
tp1041
a(g14
S'1EjzcYf9hxEmp2sPfZRZCxTtnGBtg9wDXs'
p1042
I2
tp1043
a(g14
S'14MoQRwiUSb3kMhHqRLzv4xXGi52BeSsZA'
p1044
I2
tp1045
a(g14
S'1P528BvucdDr3BjfTXVBHo5AXJNFrssouS'
p1046
I2
tp1047
a(g14
S'1JQnZKywudgwup2MoqACTp34nU9GW9jxQq'
p1048
I2
tp1049
a(g14
S'1N5prEN93bQwSz8wXehR6523jjZ78snicV'
p1050
I2
tp1051
a(g14
S'1keqRDq8yxi1TpHRCNZyVfHSQPMRhtRRq'
p1052
I2
tp1053
a(g14
S'1JKZoHktXBozxan7Hr6DookVKv7VMbaw2G'
p1054
I2
tp1055
a(g14
S'1BNwjNsTLTep6phNTsZYwvnMdPEugWK4ok'
p1056
I2
tp1057
a(g14
S'14m1WtPReMYLzxho3bL2HGP8jYu3tTA1Bf'
p1058
I2
tp1059
a(g14
S'1QGwd4D1JAmzC6UFCAdYUaBWcrgGnxqm8b'
p1060
I2
tp1061
a(g14
S'1DGRF9vmzUtjGTvn5Rt2qwxo5DfDD6VgcE'
p1062
I2
tp1063
a(g14
S'13YKh6o1n5WatRBayL71t4Jn3Ywkz9Votq'
p1064
I2
tp1065
a(g14
S'17KsGj3hyooaruGkjzE8jT9PdiSyGfiwTA'
p1066
I2
tp1067
a(g14
S'1BmgHHcs5CSpZ5kEjRcKTxQV8ip6TzmJ8c'
p1068
I2
tp1069
a(g14
S'17mz2Kf2KpSwxvyBEuR7u92WxisZkbCRqu'
p1070
I2
tp1071
a(g14
S'1PtHxNgA76mhQJNfhZWg3hPGzbEyVSntyy'
p1072
I2
tp1073
a(g14
S'1qArLPv16XsUjd1rDLrWXDJk63Qraxwq4'
p1074
I2
tp1075
a(g14
S'1FpvVnUoPaZNDtrEViDqF1AL7S17gQ7FhE'
p1076
I2
tp1077
a(g14
S'1DP2QQq7GMSSAW7hUaZC6QeZxbiAqbYjMH'
p1078
I2
tp1079
a(g14
S'1MN6mCwtgPwSx5kp8SVdjUEHjfWsHEx6f4'
p1080
I2
tp1081
a(g14
S'158rmBqBvY2R7z2EZHVvRptkjWSiFAqTdN'
p1082
I2
tp1083
a(g14
S'1FSvCFs43y7pS7egDspPk39TGvhxCSLshT'
p1084
I2
tp1085
a(g14
S'18PkarKyGMV5sf5kQYvBabpvtPMcf517LZ'
p1086
I2
tp1087
a(g14
S'1M2Pbb5yhPacFAcLYAGHBQDXbWqd7Rs7N6'
p1088
I2
tp1089
a(g14
S'1CtqMHUgRB4kmc9MPK8YUCB6wiZiuhE7y4'
p1090
I2
tp1091
a(g14
S'1GWLtgU9WUcdmuu2L7AnQZKQd4vx1w8KzJ'
p1092
I2
tp1093
a(g14
S'12PZTFXzTnoT6BrSj3bNpGjAAusetGGzyZ'
p1094
I2
tp1095
a(g14
S'1379XYtjE8E5mDWP2dY441R7YcNgrRmCHJ'
p1096
I2
tp1097
a(g14
S'1269ww1UdQ5M3WXNF14CE1PKVZpTQjfZkr'
p1098
I2
tp1099
a(g14
S'199Z1deypuqjhpjZas8x9gTgUogPCuBzmp'
p1100
I2
tp1101
a(g14
S'17GnBtmfKxYEFr2G4bo2A4kkktCbncfHzs'
p1102
I2
tp1103
a(g14
S'1PXBHoSaNLHcaYnMS9GJkZs2zvH4veEVuo'
p1104
I2
tp1105
a(g14
S'1P956CVg19gkD5oEkzTp5paQbqwhqn9GbS'
p1106
I2
tp1107
a(g14
S'194mAb6aU6EwbBPXmkwp66iHb3cgjmqqog'
p1108
I2
tp1109
a(g14
S'16CzobdpYGew4bF9ZqkjyRh8J46ynMYE95'
p1110
I2
tp1111
a(g14
S'13wLULas9W12YPziEL5A1cQUvdRbiMv2Sz'
p1112
I2
tp1113
a(g14
S'1Fdcb5uQXqQkTqjCBqYeWAUWzA2p3FjLHV'
p1114
I2
tp1115
a(g14
S'1KuQWsMtQiAWe4zXjkqwryeaSqxsZiDPnL'
p1116
I2
tp1117
a(g14
S'1H7mXQKLV51gW4X2Sue9eXMuAvy9E34L83'
p1118
I2
tp1119
a(g14
S'1AvvMaYaKjjXZQyLG2tB7ZAq8CQw2Kz2eg'
p1120
I2
tp1121
a(g14
S'12oVqN6dJVB6F3HRtFa8FWLyyryTnRfiJn'
p1122
I2
tp1123
a(g14
S'18XgGjbZXputBsiGDvUeTd7gLqvqckVgwi'
p1124
I2
tp1125
a(g14
S'1K2z8qd7jxa5qbx2rjjY9rJprCHJTh3FL8'
p1126
I2
tp1127
a(g14
S'1P64dk1fXdzZkS5sM2KekytramMTmEX6Yc'
p1128
I2
tp1129
a(g14
S'1FYEbHTRCDW8mne3zBhhiJwJZgXApBdnnt'
p1130
I2
tp1131
a(g14
S'18nw6Yw79KwLz9U39J7ACtivLwTGpz3saM'
p1132
I2
tp1133
a(g14
S'1Bw5W1Pwfb5mBkXkeqomBCbikVaKhJ91ea'
p1134
I2
tp1135
a(g14
S'12DQPDhVPom997DQrN7yXEEb8aVBePRKwK'
p1136
I2
tp1137
a(g14
S'17k7iLBCDz77j9nN8UQ3YwxMLxTs1PzbJn'
p1138
I2
tp1139
a(g14
S'1LpR4iBF7Wmyy2NSbKeZZ6jkLzKxr4WufT'
p1140
I2
tp1141
a(g14
S'1VXRKQFcgDU2wmRHCZdaVDsVgJCKwCKGQ'
p1142
I2
tp1143
a(g14
S'1B6F4adB6rdZHVwwQxPbfCD5Z27UHNrndD'
p1144
I2
tp1145
a(g14
S'1742nhcudtfQNWPhnNccVjUxVo5uTGqpaQ'
p1146
I2
tp1147
a(g14
S'1H3iijgXTVVzA1n9Csu32UWH539sQNcj2r'
p1148
I2
tp1149
a(g14
S'1MNthh7E5vH5b7JN9ay4ESjpxGUzpF9guQ'
p1150
I2
tp1151
a(g14
S'1JUqoEntjxMQZD3yNsDHBADMrcPG2iofBM'
p1152
I2
tp1153
a(g14
S'186nKz1GkJ71taw366MKRddqysZbggmE5X'
p1154
I2
tp1155
a(g14
S'1HHupaQkVq9UQ7kHdPfU2eLdwvU8i4w3KC'
p1156
I2
tp1157
a(g14
S'161oRzW3xYb9ZuYU2F9JkhNJP2HDj5Qsxs'
p1158
I2
tp1159
a(g14
S'18ZHeEeEMyfiWvwrpx18bdwJg85GsYsV6q'
p1160
I2
tp1161
a(g14
S'197w7fZe4q226wKpEv1mSWjRzvLDFq3eZ9'
p1162
I2
tp1163
a(g14
S'1Kc8LgVpW6C2VGJERHiCfg7Ux2rGKfVSUk'
p1164
I2
tp1165
a(g14
S'12Vn7bikdqfWTShW9TemtwUnTHzHYdyJCT'
p1166
I2
tp1167
a(g14
S'1Q3Z6LZMSW1zugTztf3fR5rkftxTxRzFK1'
p1168
I2
tp1169
a(g14
S'1BdVQhT52gUXp1HedUa9DdLMpyYQpzF41v'
p1170
I2
tp1171
a(g14
S'1NyeymS1ibyQkbf7D3x5wSi2UvnGrdrvc3'
p1172
I2
tp1173
a(g14
S'19z2fcxEse9dumaWCUiyZRTWjhTP7xAAU4'
p1174
I2
tp1175
a(g14
S'12ngipW6wKh7Crf75mRBaxujAaYMTMyqnZ'
p1176
I2
tp1177
a(g14
S'1BpMa9on6TaCCcGXs9puK19sSabzRqMT7c'
p1178
I2
tp1179
a(g14
S'19MapRgRbHFaNPe3tCMyHD9h3HbgTfdbvF'
p1180
I2
tp1181
a(g14
S'19LUQWL9MZkFiyBu25Vo3aWCXwqU3UvkWb'
p1182
I2
tp1183
a(g14
S'167J8EQ1yA9LWBw4tEw9ryatr4SNLrLy4p'
p1184
I2
tp1185
a(g14
S'1KYa1JGH7jU6BmE7M7W77jry6afF61tZRj'
p1186
I2
tp1187
a(g14
S'1CTW4K7kKM574T11JbU8UhKzqRnaCmrAzt'
p1188
I2
tp1189
a(g14
S'1DPZkjsQLBZjYN9jLEnY8NNqF7JsBG9mhv'
p1190
I2
tp1191
a(g14
S'17qyBPutbJM8t5uBqoYqDhCqLbYzLbW2Be'
p1192
I2
tp1193
a(g14
S'1146HAvezwAbakhY8F4A1EJabSF1xwdqt5'
p1194
I2
tp1195
a(g14
S'1BL38s2qj25Y7Srd94z9nDnCaW3YAkvRfv'
p1196
I2
tp1197
a(g14
S'12T2q3w77pupvAbVWVpVRv229VaQSpBrZQ'
p1198
I2
tp1199
a(g14
S'1EKt7982H8yu63BBLkzEVhCzwXf9qDQWWo'
p1200
I2
tp1201
a(g14
S'19zrh8DHss2SfSuq4EEskWeAkWvBWLRGRP'
p1202
I2
tp1203
a(g14
S'1HGgvmc5szG9GNSFbYurFW9BtY1UKyFvj3'
p1204
I2
tp1205
a(g14
S'16bYAqm6WckXK1d9JUeWEFJWSs4QaxpctX'
p1206
I2
tp1207
a(g14
S'1yvDbAUaW1NX614AdQLNPeGkaieVB9SsM'
p1208
I2
tp1209
a(g14
S'13owV84jumXymji1x6XXr6inZL1Sa5UtFk'
p1210
I2
tp1211
a(g14
S'1DbvdmpEcuYng91iUmX931e23wQJTF6mKh'
p1212
I2
tp1213
a(g14
S'19F72Z9DQH7amZYjubHnqY2vH55gGWbCYE'
p1214
I2
tp1215
a(g14
S'18C8H8Xob7Uwuz423sHRD9LRb8hFK1Xy6h'
p1216
I2
tp1217
a(g14
S'1Meck9joTufLY1BjTV7TX483Mrc5XbJWM3'
p1218
I2
tp1219
a(g14
S'1FMgahuNLA4AUVjcdvsE3D6HDzaWTkwDdn'
p1220
I2
tp1221
a(g14
S'15V1z5sRAvsfUCLSBQSLpSAUnZo31TZQ2o'
p1222
I2
tp1223
a(g14
S'17TitDF7mfnuPMGfRDTb2kes72cJTNrrpS'
p1224
I2
tp1225
a(g14
S'19YNTJ7NyZTzQFLtQemkEkixCUorELU2tE'
p1226
I2
tp1227
a(g14
S'1MSj2QZTM35FHFG6Jmz6ZtfpiZ8Fij8GqU'
p1228
I2
tp1229
a(g14
S'175wvWdMtcJ6TzEanr4PNi8V9DckQFLefi'
p1230
I2
tp1231
a(g14
S'1ACE4PmzvPNbKzQK3Lg7Ub8TUEbwwDqeXn'
p1232
I2
tp1233
a(g14
S'16CdhWuqU2z7UFHAGVLTKCFbYe3cCzihMV'
p1234
I2
tp1235
a(g14
S'16WUQQ8MedKHr1JfZDHuvBCRLeeASsdYK5'
p1236
I2
tp1237
a(g14
S'1MAVVmcaAM2SWYCQPNhcRGTCJkh7ShZg2S'
p1238
I2
tp1239
a(g14
S'1CYuHkq7KXui1KU121FQMyU5gv5MhZWM6R'
p1240
I2
tp1241
a(g14
S'178456sF7MTjtPHPrNmzUftPM8DRjuDkqD'
p1242
I2
tp1243
a(g14
S'1Dr8gRtD8FUX9Z9aP2dCZdJhiHi2zuGBVj'
p1244
I2
tp1245
a(g14
S'16nF6rSLsp5mSmKQr719VWMqFLnLPzQkQz'
p1246
I2
tp1247
a(g14
S'1LwduxwG6pePSCboHxNWgB4suDpVKWRJAM'
p1248
I2
tp1249
a(g14
S'12nNLyBtPLuFCBFUjRSwHCHKgek9zVCJVW'
p1250
I2
tp1251
a(g14
S'13ERxXyekYqLwXmnH23z1MQRXZvcMtkfDw'
p1252
I2
tp1253
a(g14
S'1KQKiRqnvqSkH1CVLCb9gjgVtMYKuMnq1q'
p1254
I2
tp1255
a(g14
S'1MvNPMjvFKebWoKqJar9rLukufibGkH9eo'
p1256
I2
tp1257
a(g14
S'1GVW1JG6KbkUksJtqnQKj2X1iDCWXvucs2'
p1258
I2
tp1259
a(g14
S'18eAgVypcx7tYmC6i6oUsWSgr8dfzquDHo'
p1260
I2
tp1261
a(g14
S'1AgooQY4vMcALH3KE6uBUTZPmtACAKNDeg'
p1262
I2
tp1263
a(g14
S'14845V1pVDT5cL7ufRt2F3fmBCWjNQ1oBG'
p1264
I2
tp1265
a(g14
S'1Ba3DCm6ijeXVRC4yKhEKzMFFV9XC1AzQd'
p1266
I2
tp1267
a(g14
S'1B6F4adB6rdZHVwwQxPbfCD5Z27UHNrndD'
p1268
I2
tp1269
a(g14
S'1Ew4QoRKE8cDTdjqfhD27ynUXSDByWqGjK'
p1270
I2
tp1271
a(g14
S'18rGYtq3EJxDLdtYwYzrBTNsE32yknB1XG'
p1272
I2
tp1273
a(g14
S'15LhXE8iA9iKdgTGgHfps9PgD63xnNLYZS'
p1274
I2
tp1275
a(g14
S'133GeH1Prpik4tvzca6DGzqEkfXvEzuwdM'
p1276
I2
tp1277
a(g14
S'1Epx3YwrtA4VgHLRk7UoBPPzTBVFEJPQXg'
p1278
I2
tp1279
a(g14
S'1H4yHWssuc7oEygNAiZpMUFMk2J2prXX5Y'
p1280
I2
tp1281
a(g14
S'1DQ98thimHkwE1jS8R7DHNT4FQG83BX1cF'
p1282
I2
tp1283
a(g14
S'1M2GVibgnLpm4rqSshtfw75zJhuU7gbWpb'
p1284
I2
tp1285
a(g14
S'1LkqrzZF6w4aRNxpJjtmzSUbqwwKFQJTU6'
p1286
I2
tp1287
a(g14
S'1DqRo8iQQxXCpCW9VMDrUMVZhHi3FyrzGr'
p1288
I2
tp1289
a(g14
S'1EjSXKEfmKLakxc38eKrt9ogedxraKipTQ'
p1290
I2
tp1291
a(g14
S'1HSNFBqCrM9qo9eisU2u4TExHLm5YEbiUC'
p1292
I2
tp1293
a(g14
S'1BrybNH54xZP2nUk7awwAGKD9bHRttxARj'
p1294
I2
tp1295
a(g14
S'18fsNLCAp4ETwL2uu1zBGYyk953KMLcg8Q'
p1296
I2
tp1297
a(g14
S'13VXsnjJr67mRYi4PFLFET5xewaGxACF5F'
p1298
I2
tp1299
a(g14
S'1G2ocDTBVM4EPJ5JMCxPuU5AJktMWLZicE'
p1300
I2
tp1301
a(g14
S'12jYfof3fjjpHLV4RZnzM4Q2B4kWbjFCpX'
p1302
I2
tp1303
a(g14
S'1BXTsTHcpMtJTwxPAQ8k1jEzm9tQPqrthr'
p1304
I2
tp1305
a(g14
S'19vSiPe74xwMeQYRhb7k2MtZGmFhopAGjC'
p1306
I2
tp1307
a(g14
S'12jqtFTH37TYnGCojtpRiYP9jb3bHWtiPR'
p1308
I2
tp1309
a(g14
S'1NJX9UMamdiovPCegzXV8khanMFWjXK835'
p1310
I2
tp1311
a(g14
S'113j4HgViUaRetEH1DKjkuCk5rNzdULsBo'
p1312
I2
tp1313
a(g14
S'18z7gs6Q8bWqc2sVmKiFVQizssuRC8KSGK'
p1314
I2
tp1315
a(g14
S'1ntiRkKcWMNvcSAZe8jHUB6W9FSWr9Kip'
p1316
I2
tp1317
a(g14
S'13yRy3Qwo2pjCSYzWbS3R8Ahsi4nvGqFPS'
p1318
I2
tp1319
a(g14
S'16bNY2w7EAuoQCnc7mWT1KsqBQ5fDUjuPn'
p1320
I2
tp1321
a(g14
S'12J3t2UxXu9pFkPmR3KJJKWEGNKCjgMVQG'
p1322
I2
tp1323
a(g14
S'1Gpv26dwgqZB9S1hiKtzinjGDThyXdKpaz'
p1324
I2
tp1325
a(g14
S'13ZUuhq7hxYKrQ2siojAJzPYGY6JN2DPtw'
p1326
I2
tp1327
a(g14
S'1ERjrL5KhFgPkAH9Ypg71MNL8PFvit8Ww2'
p1328
I2
tp1329
a(g14
S'18Ny1bGBowMKrtLQWHNn2vt86Jrt7ckcB6'
p1330
I2
tp1331
a(g14
S'1Jj4Ppfocq5HNEVg6ZmFtrruRDC1Etw91q'
p1332
I2
tp1333
a(g14
S'1L9xhNME8KKMxAvLvfWtFKhB5FPDX4eH2w'
p1334
I2
tp1335
a(g14
S'1JAbVDMte36s3axgSPc7zytoxuECAuQSrX'
p1336
I2
tp1337
a(g14
S'12UEoAU4HS9Krc5qRyp8EkLDri3AyiV2ic'
p1338
I2
tp1339
a(g14
S'1HdgaUdySVzDD1H7tzyFXomNPszk3kEkG6'
p1340
I2
tp1341
a(g14
S'1DWE3hubWWUFMvS44UA9r3qWwRNbPeo7U4'
p1342
I2
tp1343
a(g14
S'1L78GAT81MA2XfyTZGBGwS2Uq9C4J2uqFs'
p1344
I2
tp1345
a(g14
S'1A4Wfua6e2qVHPL4Qs2aeSSMVaUjhcU9nD'
p1346
I2
tp1347
a(g14
S'18VcunXJ1eQ6d8BuMxQBhpy6S73N9NKqyw'
p1348
I2
tp1349
a(g14
S'15zrFbh2NausU2ydc3HDUcvcK7ZKA8YeDE'
p1350
I2
tp1351
a(g14
S'1AT1bmZwPbysKBQt7SMRZiTFat4hufAAco'
p1352
I2
tp1353
a(g14
S'19vSiPe74xwMeQYRhb7k2MtZGmFhopAGjC'
p1354
I2
tp1355
a(g14
S'16paxQexvGAo7wJfGRyi2zMVMT1FSX2fyS'
p1356
I2
tp1357
a(g14
S'18hVus65M74iGqs7bjVWhwB4ZDRcBPaTt8'
p1358
I2
tp1359
a(g14
S'1MJhRPbVjVTmVrwcbztVR68MxbNRvMTH2B'
p1360
I2
tp1361
a(g14
S'1MZAtvGvi9NDMFJfpvjzromBSuqySQ1bLX'
p1362
I2
tp1363
a(g14
S'1MvdJRyiesRqJDfU3G8RVrR9qxeNoQG5FX'
p1364
I2
tp1365
a(g14
S'17seMXg8fhHdsvaDNcrwvohHagY2CFGB8F'
p1366
I2
tp1367
a(g14
S'1JYtD3mD7jzqiAN4HsweiuhLWkYQntGP84'
p1368
I2
tp1369
a(g14
S'1PzZLyNeZxCvHEjBg63kBRNi23pCAKbFKU'
p1370
I2
tp1371
a(g14
S'1GxpyREvNAcupopiopqeHb9D2zSSV55RBb'
p1372
I2
tp1373
a(g14
S'14ntRNtbecC5MudiUBTAXsjVCwGsEVayQG'
p1374
I2
tp1375
a(g14
S'12xd1T463A3ConBV5JjgTaHqFdeK4DHafV'
p1376
I2
tp1377
a(g14
S'1AFYvzbK393AJ5gesKvVWKDTdjQjuG4DBt'
p1378
I2
tp1379
a(g14
S'18HzFray2Z3ABDxPkRg3TThwCkQN1FTQc9'
p1380
I2
tp1381
a(g14
S'1GJ5oivdwndxKxmgeKARqEXpUnMWdfx1SJ'
p1382
I2
tp1383
a(g14
S'1KYG6ZyKscyEKb9ApZvaMvvwN4H52L1ZDG'
p1384
I2
tp1385
a(g14
S'1D9DSmthdFoF81f1wHFPCzrz6x17F69M6Y'
p1386
I2
tp1387
a(g14
S'17P3gJGHfsMfNWLDgNYJ36PbtDtmzNkL4e'
p1388
I2
tp1389
a(g14
S'15xm7m5QE2gqLxdRyh6y1jVSCuN9PUQTGs'
p1390
I2
tp1391
a(g14
S'1JTgvzyjppQFXJNgkrCMCpyozkjcnuc5sd'
p1392
I2
tp1393
a(g14
S'17jL1uRxPeUgpANU3Pewi4VXJh4zmZDM5h'
p1394
I2
tp1395
a(g14
S'1FRU1Xm1zRe8WEkCGy383P6ShtJk1eNMG'
p1396
I2
tp1397
a(g14
S'14VYeCK1LcfyCYP2Z4XPxeMycgy2iBV6Sn'
p1398
I2
tp1399
a(g14
S'1HfjPz4nBctVQpNDFth3XtKovfJTzHfasC'
p1400
I2
tp1401
a(g14
S'1GdbvKkhH1UiwM2YuXaH52DiWtaWRTepoa'
p1402
I2
tp1403
a(g14
S'1KNWEMycMAcqG7KAVAfrJqRzxeecPT5yYs'
p1404
I2
tp1405
a(g14
S'1DRuSR1zoFXugX9YwifLfc3im7TpckWdgM'
p1406
I2
tp1407
a(g14
S'1NUAbH99Ezp9KB7ESzDD8sDEoMeMnTTHdg'
p1408
I2
tp1409
a(g14
S'1A6XAoCRDXsxs6jhcvH8myQShDN1cj4yME'
p1410
I2
tp1411
a(g14
S'1L877VGgFh4CnSRcZYo9HBNyDAqgbk1ua4'
p1412
I2
tp1413
a(g14
S'17u2h2uqerWEAx3YbhFf9cVxwNVKPBPDci'
p1414
I2
tp1415
a(g14
S'17cGBjnMSmiwp3RvVbnQPF9Fc1sSsHdkzy'
p1416
I2
tp1417
a(g14
S'18Crh1Wys8VTszBf3mmtLAS8end1rxM128'
p1418
I2
tp1419
a(g14
S'1LQK3jKkDsSrdnvi1k1ZoPmrZmpNWWPiwm'
p1420
I2
tp1421
a(g14
S'1G3cJbBrz68k4ksXg2CAHkmSMj3A9GVm2Q'
p1422
I2
tp1423
a(g14
S'1Lk6AnhJRJeCLDctA6HrMQBRLCy2MQVnzP'
p1424
I2
tp1425
a(g14
S'1MfLVgW1PYS3RHA5jtA4EUBPYHwuKWjAeg'
p1426
I2
tp1427
a(g14
S'12Eaqy2D8euBWaXqek1c5gTywedugSD4wS'
p1428
I2
tp1429
a(g14
S'12452GnUhskM7sRgE1odMR8uF31hrQuZPt'
p1430
I2
tp1431
a(g14
S'1DUdMBkbgTLZid4QcyT2Sgoaxs13q1BR1Q'
p1432
I2
tp1433
a(g14
S'18Zck9p49DcjY5iG3iuuWckwpeF3ZfLWYr'
p1434
I2
tp1435
a(g14
S'16iFR21Pkwih62QNSE3cAqumTEkpGk531J'
p1436
I2
tp1437
a(g14
S'14MXcmBDh6Zj4DcownXZduodsNG9oiuNsm'
p1438
I2
tp1439
a(g14
S'1DGRF9vmzUtjGTvn5Rt2qwxo5DfDD6VgcE'
p1440
I2
tp1441
a(g14
S'1KRDe3cZrgDcxRDfX8XrhyUBcVEMRm1J3i'
p1442
I2
tp1443
a(g14
S'1HkH4eWLybdjjqLqc5QPYKXrYvFQfGFKzX'
p1444
I2
tp1445
a(g14
S'1D5VEjirWNHVzVcxgDJr9bth9J2qW5LSJB'
p1446
I2
tp1447
a(g14
S'1Py6KtLgGuTM4fJ8HFJLyH3EK6ozxDkoXv'
p1448
I2
tp1449
a(g14
S'15tSGL3Weft3xUTHyGLvMm2E6aj1Tm714n'
p1450
I2
tp1451
a(g14
S'1Nw1Po1mSz4R3Uw2ZVzMmd1ZZewspsc76Z'
p1452
I2
tp1453
a(g14
S'1DJLNKXSYu2rpFGsDGKrM4HwBn8hRmZdwq'
p1454
I2
tp1455
a(g14
S'15HSStrLAXHscn4TNgRoVqjUW5wtYYh1NR'
p1456
I2
tp1457
a(g14
S'1EKEKFrYXXWSXKH1Sg8ZTrsMLA3xSANzM5'
p1458
I2
tp1459
a(g14
S'17HayMe3MShDYafqUM1QFCSEvMCEsfMsB7'
p1460
I2
tp1461
a(g14
S'1GSmeR5izR5HPaxTLyXPjfDWX1ZCi8pQgm'
p1462
I2
tp1463
a(g14
S'13DQh5dej2NVQjyRb9XtYCEceGuXRtFox7'
p1464
I2
tp1465
a(g14
S'1GnFLd78F8AEoPGnSYCKFm6xRJxd3AkB8V'
p1466
I2
tp1467
a(g14
S'1GVrhQBv8t9zy8FWtkNeK2CLAxxEt5SbW4'
p1468
I2
tp1469
a(g14
S'1E3FWZezDoJY4HG6Se7LZemxh4kn7bGPQ3'
p1470
I2
tp1471
a(g14
S'1CVNxepA3BURSErSWGiRromk71LACKmMrc'
p1472
I2
tp1473
a(g14
S'18L9uD3hYEkDmewXhXZHJucuH4a7zfoyax'
p1474
I2
tp1475
a(g14
S'1ABJ4v8dNG1FZnix6JEhuiCAxTTZdEaZHH'
p1476
I2
tp1477
a(g14
S'16nuyHaoimMPt2yjVEZiVu5eL4qPKeRM6F'
p1478
I2
tp1479
a(g14
S'1HPGqVeonADkMDYvb3FG4T54EDyjej937t'
p1480
I2
tp1481
a(g14
S'1JtdBQKxN1FiAnJmDRqNi65xw5KK4aTiwp'
p1482
I2
tp1483
a(g14
S'18s26JCDHcnBg3wjQBRuAktQ3Sd7UMjTq6'
p1484
I2
tp1485
a(g14
S'1JDXjmKUHgc1tcCqeKt6f9tWHiV9NKL3zo'
p1486
I2
tp1487
a(g14
S'1KtALXfGRtqMKKj95spX3dzHdhNonUAChs'
p1488
I2
tp1489
a(g14
S'14CDNRAouK4AguemFa1S3RdrvjxC3RZXhC'
p1490
I2
tp1491
a(g14
S'19WftRgfNMmdHXwD9eTQLWS9grF7i9714f'
p1492
I2
tp1493
a(g14
S'1Fto7Ga65nyqjUntQWKapGPje9dzxZvyeG'
p1494
I2
tp1495
a(g14
S'1Q4UsDUsRptYmk97b9dWge9gm98zq19Bjm'
p1496
I2
tp1497
a(g14
S'12y1W7MdvXG8xAyGDiUbXXqiwX8TbKBVyf'
p1498
I2
tp1499
a(g14
S'18zmZ6Hn4ZmTEqnjH6G3bWtuLCarK8Jy5P'
p1500
I2
tp1501
a(g14
S'1CAK3nkUqHbZtkmtLiqTUVsFm83xiD9dgJ'
p1502
I2
tp1503
a(g14
S'13QWwwrHqK1ia1UCSGZxv67z6BFkV6kk4u'
p1504
I2
tp1505
a(g14
S'1Hnk7DtPMFbUSPvr53VkHwRtBpWsYmNVVF'
p1506
I2
tp1507
a(g14
S'1Eqh6LpsbBCN2dRPvJUT7a1DB7QX7E7Pwg'
p1508
I2
tp1509
a(g14
S'1AB3YC2oP8Ed4grfb6AoWCo4DCoiYe2kfN'
p1510
I2
tp1511
a(g14
S'114cCQpTQnJB1PVvfKkHc6XwjYN3sTNT8H'
p1512
I2
tp1513
a(g14
S'19p5sDP7642wKAhFFQ4qHaMo5Dj4xrnRuA'
p1514
I2
tp1515
a(g14
S'1DMR6zbHSUupxeAE5TbSCPBEY8oXTH1MRZ'
p1516
I2
tp1517
a(g14
S'14pYTN8TpB3tShZrtvLpSEbz7ygpFgswcV'
p1518
I2
tp1519
a(g14
S'1373ttkJcRy8rc3o7CpL7Sq7eYyzw3DgGm'
p1520
I2
tp1521
a(g14
S'12iRLTjjwVYHZkXrdZCZebWNdPSu5Y1ThN'
p1522
I2
tp1523
a(g14
S'1NHpUtKJPVJ22JKfzucfN1Ae1aVeuniAPT'
p1524
I2
tp1525
a(g14
S'16wsVSSryD63tu2zW9sndwfPtZx3bx7tAL'
p1526
I2
tp1527
a(g14
S'19tUnYbxqGU2CdHQmb3EgosAKwgA7Pgcgs'
p1528
I2
tp1529
a(g14
S'17k7iLBCDz77j9nN8UQ3YwxMLxTs1PzbJn'
p1530
I2
tp1531
a(g14
S'1Hkv6JVig7Wnj1UKbjXS3x7WGm3praa5C3'
p1532
I2
tp1533
a(g14
S'18QudFr9a3Ku9SCsBPzky8aWnE8k47rE6M'
p1534
I2
tp1535
a(g14
S'1Khv3ZjKv6HckvrPZkDr5W6ez1Tm2rp6eL'
p1536
I2
tp1537
a(g14
S'1MYbXE3C63xw1v8DZUmjKziqGmfRgiThwd'
p1538
I2
tp1539
a(g14
S'129AkNGfLkddkBph5CSqyQtU9ptMj7mRbm'
p1540
I2
tp1541
a(g14
S'196Ks8kVUdcZrgrDUxDDxu81bqLAnZg8LZ'
p1542
I2
tp1543
a(g14
S'1FiZo3dx421RxffrxoKKLSqtKzTMsHknvs'
p1544
I2
tp1545
a(g14
S'1JwLjGfsQ17iMaHV9pyXYf3FUiSnqxAuDd'
p1546
I2
tp1547
a(g14
S'1Lbem48EWT17DD3r5iEaL3aQAGgtgv6pRa'
p1548
I2
tp1549
a(g14
S'15fvqrWXykN78c7b1b3z8y2a5VUUppbhrb'
p1550
I2
tp1551
a(g14
S'19dvWCBmYywsRtkiYi9crycRjFdbuiWRbG'
p1552
I2
tp1553
a(g14
S'14Hd6G5McwxqPWgaRHRHLC9pcHdvXA7y4s'
p1554
I2
tp1555
a(g14
S'1GVhbjuj6fT6pymeDT7vAcAKhb7rJ1D5JA'
p1556
I2
tp1557
a(g14
S'1C6dzin3mwMWvwXmvD8qJufFTSaAFT1UFx'
p1558
I2
tp1559
a(g14
S'1GNpW81DGmXf4QTBRxvYiHj4z2maj5uvFo'
p1560
I2
tp1561
a(g14
S'1LXHUg8io1GLfRe4f3LDLGmC9qYr3UopeR'
p1562
I2
tp1563
a(g14
S'1C7vGAHdzTtv7pniTmueJnUT8ejCi7dfD1'
p1564
I2
tp1565
a(g14
S'1H4khBujF1YUYUVZFoKA1uPCentwkLnR3u'
p1566
I2
tp1567
a(g14
S'1EjNbR5PpwESqgUhZi9rnH6F5m5o7EMj12'
p1568
I2
tp1569
a(g14
S'1PYVfmpsgBsiQ31QNB1nqveSgaVJ9ZbZbR'
p1570
I2
tp1571
a(g14
S'1CrbU25VcD6MfGqseaSe2EoMTv1tfTi6ah'
p1572
I2
tp1573
a(g14
S'1DjLg8Wep67EGjFq6x9jnqHHtAu5tcN3Ld'
p1574
I2
tp1575
a(g14
S'1Hy2DMvBtLENBDdBRPGeB127eNvjMwavwA'
p1576
I2
tp1577
a(g14
S'1JwNEWMFDgX6zwwdTNFdtn4p4PVfkc4zyb'
p1578
I2
tp1579
a(g14
S'17SFWxW7aLmsXBtVqnHVyi4MutFTgfwuge'
p1580
I2
tp1581
a(g14
S'1BuYJGMhTcToLtG3b7w66Fa5ivLZWfNUtS'
p1582
I2
tp1583
a(g14
S'17zQyrKeKcRBWQ7j7kSGSBRjUSxwp1MZQf'
p1584
I2
tp1585
a(g14
S'1A5Q1vpp4JaZAe6QWCMAnK2eFZPYjmj4C8'
p1586
I2
tp1587
a(g14
S'18VYzKhA1THmAsNkGhm7prZzJC27CCxtvq'
p1588
I2
tp1589
a(g14
S'19F8p7rfF2Bkd5p3XmWdgSpaj6xnRsF2MN'
p1590
I2
tp1591
a(g14
S'1AmL3Ahck5fjAtJA1uUoc1S116oxEsy4nw'
p1592
I2
tp1593
a(g14
S'114qzHD7aXtyzq2soz9eT2FrLNCtTsRN8X'
p1594
I2
tp1595
a(g14
S'1QELbisMfM57YxdPuY6ztrgMUzxwyPW3Ud'
p1596
I2
tp1597
a(g14
S'13y2tpXYenkHiaRQsd8me4T23MbCgeDEN4'
p1598
I2
tp1599
a(g14
S'1MYsTMxqHyGCwtY5rSrox4Ct8XT5QdKKS6'
p1600
I2
tp1601
a(g14
S'1MKmMSL5piyVYYv7NWwsFuzwXcwW1Zg7CU'
p1602
I2
tp1603
a(g14
S'1A475V58RJAoeaUcoJAjrVmttaiRyYCGT3'
p1604
I2
tp1605
a(g14
S'1KNjPZamdnbgNyvsWNMs95LtFhbsEYohhi'
p1606
I2
tp1607
a(g14
S'18AttvsxjDDz6GMRETq612RdeGi4cQdSKX'
p1608
I2
tp1609
a(g14
S'1MtqQS3v4fsKZbDoRE3nGpQHHZsvHoF4jG'
p1610
I2
tp1611
a(g14
S'1DPtvBQRSibxGPJoQyf5DKw4gAmHpzDa4h'
p1612
I2
tp1613
a(g14
S'1PUJGkSG6ZQgPZoin5rEtqtRpm1W1KwZ4r'
p1614
I2
tp1615
a(g14
S'1NHP7oSVxsawc46KEhaD2PCPZyUaEc9WLM'
p1616
I2
tp1617
a(g14
S'19HskFPnUkaKceqtPmPBxQJQe75hbCSFng'
p1618
I2
tp1619
a(g14
S'1JpWZMtZwrDjfvkJQRRibTszaPByW1gLrh'
p1620
I2
tp1621
a(g14
S'1LKRKNWuSwjPEgKM5xzQqF4GS4HuTna55X'
p1622
I2
tp1623
a(g14
S'1KCxompeM3MPD3twgtPvrNKeRYhFHV5Z42'
p1624
I2
tp1625
a(g14
S'1K3FtNcsm38CfC4YmzkMmUt38qSyuoFWcu'
p1626
I2
tp1627
a(g14
S'1Mnr8pTcU2srPeAoLjQp4CpQBXaFEgm7QL'
p1628
I2
tp1629
a(g14
S'1rTxwiRkG94DCbyvJ4LvdTJM9vWugA9dP'
p1630
I2
tp1631
a(g14
S'1NoMEY4kvvbXbXspvTGtX9Y7iHDDjgmg1W'
p1632
I2
tp1633
a(g14
S'1PebmGPZAhMmS8h1A8GBt6eTnCu4CfmxtD'
p1634
I2
tp1635
a(g14
S'14s9wo36CtcnEzdsrztsrR3Z7uWcY8NASS'
p1636
I2
tp1637
a(g14
S'1MW7ezeH9TpdrtbYKhp6oc6yc11SeDBA2r'
p1638
I2
tp1639
a(g14
S'175ELZ2EECEnXjsi4p3cAd4RKUykGqDGnv'
p1640
I2
tp1641
a(g14
S'15Baq3UZUHcKis5AGHvDJXEhCW9GJGdun6'
p1642
I2
tp1643
a(g14
S'1JXEUuM5jUpAigwcF3Dsppn3eB4ecwQRwL'
p1644
I2
tp1645
a(g14
S'1Dk5DpBvTFjcuni4FnyZXpogNxEZh7ZAdv'
p1646
I2
tp1647
a(g14
S'1Hfx8VJgX7FyXLRCyD1776VR2U7x8W69C1'
p1648
I2
tp1649
a(g14
S'1NeoHbbQuQ2gu9xQZT2cQ3SC6WB4VhQdWr'
p1650
I2
tp1651
a(g14
S'1P5AEpS8rLSkYJni7a19brXTj4KYZpLmPQ'
p1652
I2
tp1653
a(g14
S'16ZFEWnAcR5hU6QZtFzZfSAnXoS7uwFNmB'
p1654
I2
tp1655
a(g14
S'1Fvyjnseir7eNqEV5qujoywRDuGzSzHu5K'
p1656
I2
tp1657
a(g14
S'1FFRT8a9kocXqrcE1asKQUsyo7Uo3hnjEQ'
p1658
I2
tp1659
a(g14
S'12pKjqZ8Uhpkg2x777gwahTvP2vB3fca2M'
p1660
I2
tp1661
a(g14
S'14CCs5GxfXnkWFhwfMrovEZz6nxVGeNLmF'
p1662
I2
tp1663
a(g14
S'17ZZvLKWfZvVtX9b6mSCLP5uxX69gYnmUo'
p1664
I2
tp1665
a(g14
S'1BYwX7WkXXYidvVewM5YMFgjaUPdsDxUXj'
p1666
I2
tp1667
a(g14
S'1PUW8CnALBo4ocn1eMBrtELeZewsvnyZwx'
p1668
I2
tp1669
a(g14
S'18rYKGugAjFPtE6mHQtc56j5c47aXgQHfh'
p1670
I2
tp1671
a(g14
S'1EbsMffqR6e7tBrs7Z6hAZdMPvn41cea9u'
p1672
I2
tp1673
a(g14
S'1H8PnBXmDwUvkKqMEPxKRxgjNGMNRaLPE5'
p1674
I2
tp1675
a(g14
S'1HMAgjVa6dd7ZoyzTipu7NexVgEsKQRnbN'
p1676
I2
tp1677
a(g14
S'1FZYdXetLmiFDw2TNY3ZgaG8fjcfG7ihed'
p1678
I2
tp1679
a(g14
S'15wVvCWLGGzeuXH9LMMrXzEr5MBPrWQ5db'
p1680
I2
tp1681
a(g14
S'17YeG5sWqLQy7d6eKna4GjFoSLU12a2ixD'
p1682
I2
tp1683
a(g14
S'12KVL3qgmsqXbVQEh9RLMwQ9yAjjRUPFRE'
p1684
I2
tp1685
a(g14
S'1Pn8oKk7L2H1EGMj5WLah8VTAfcTJ62KSF'
p1686
I2
tp1687
a(g14
S'1PcVsJaKABWUPVS9MAmm1KH398h4imoSj5'
p1688
I2
tp1689
a(g14
S'1HE58yKgucYXAV4Rera5uR7mV4LK2AMG6w'
p1690
I2
tp1691
a(g14
S'16F2QVUAZyBS4ooWwMvqwft8oNFT1CZLQ5'
p1692
I2
tp1693
a(g14
S'1EvXBm3qmKmv9PyYfLADhc1RQZJhsvvZjp'
p1694
I2
tp1695
a(g14
S'1Pg1cGoPs38TYXtjusuQfYT7qjTzeR6Wdd'
p1696
I2
tp1697
a(g14
S'12XWAzx4iNuKjSFXQBar4dVu4TCmZ5kw7c'
p1698
I2
tp1699
a(g14
S'1NLheq54s5fAirYa2KCSE3CTnSE7bX7k4V'
p1700
I2
tp1701
a(g14
S'14qWvYvet13zohxWj2JvZrG6AM2wEEsgbA'
p1702
I2
tp1703
a(g14
S'1DPn7v4QJUpqC2di2M2AhLq686b7D8x3gQ'
p1704
I2
tp1705
a(g14
S'1EJpYrcQx9dsxfe3WKEdUpGZF5G9ApftKr'
p1706
I2
tp1707
a(g14
S'19HeV38jr9ANkSDJqLG5CTU4VkwE1p3Va8'
p1708
I2
tp1709
a(g14
S'1HTwnon98UAyuw8YqfzNDYoAkeQ6DCDHc3'
p1710
I2
tp1711
a(g14
S'1C8oVYqbETzLtyxiEVu9ghtpPGKojvdVd9'
p1712
I2
tp1713
a(g14
S'1HJnUAFkctkAXLTs1XC8ixwGxt99kAdW1X'
p1714
I2
tp1715
a(g14
S'19KCEPNZGcogmCvazZsJC27Kk1hwAS4K6q'
p1716
I2
tp1717
a(g14
S'1E7QFrNwzfUKvLQw9rWHaDre3PUmLys9U4'
p1718
I2
tp1719
a(g14
S'13bVDtzW4Z8Ks939dZj79LwYME1jgWYyiH'
p1720
I2
tp1721
a(g14
S'1Hh7wWuf7Uh8Mppr1FXHwfBBkG5ffDvRoB'
p1722
I2
tp1723
a(g14
S'1Pr2bMUQteehWwRYKrHii3MKa43xTJYjtF'
p1724
I2
tp1725
a(g14
S'1GvXSVLKhBrDYtxrNejAiJTZHKsUYMPqTv'
p1726
I2
tp1727
a(g14
S'1FpDuJ6iNc1cLpLNEn547uWQYFMzEa1uD7'
p1728
I2
tp1729
a(g14
S'1BMPtvhZRkciV7x8qwz1Zj9tWeeaDxnh7Y'
p1730
I2
tp1731
a(g14
S'1KeXwA7btNky1ThRYPsLpFBapW6CpLwJVy'
p1732
I2
tp1733
a(g14
S'1H3sE9q5vCfjBRpkULTmjkfopzFDb58ofz'
p1734
I2
tp1735
a(g14
S'17LujcK9mVkN81bX1noBEMGC9vPyEpAqHy'
p1736
I2
tp1737
a(g14
S'1L61aEbDUpry2ApjPRHTxQsFL8E1iBpqQu'
p1738
I2
tp1739
a(g14
S'14fEeo25amBkFhGmkMkwSxkfddAaFd6obQ'
p1740
I2
tp1741
a(g14
S'1ZHpUQTUYRazaxUqTrbyH2YUygx9mWB5q'
p1742
I2
tp1743
a(g14
S'1Krp6eDQiSq8S4q4oEtDkdGzbcMJuFueED'
p1744
I2
tp1745
a(g14
S'14hnNS4i2rHxFp3NxqUXDjuu3GFK4sa7Qh'
p1746
I2
tp1747
a(g14
S'1FWohNDCdRFbVNsP63ui7FretQKxK2Xqcz'
p1748
I2
tp1749
a(g14
S'1J4rLvnU4qFRafqUTJ9rxwmu2JDPtDHF8t'
p1750
I2
tp1751
a(g14
S'1L5UsM8RNzygZqLatn6K3F4xiFZ9EAWDad'
p1752
I2
tp1753
a(g14
S'13raqKY4JEW3dGpkKT6j9BPvJvJnG5qLZC'
p1754
I2
tp1755
a(g14
S'1NrAdasThUX2o9SkJoeoKJd19qmRZPrg7Y'
p1756
I2
tp1757
a(g14
S'1Ec62G78BXVVZwKFbaWLV6eYwZ4VYw1ffp'
p1758
I2
tp1759
a(g14
S'1MHPjdbXMVadNrHccZuEBCDF6TVTAgcxHR'
p1760
I2
tp1761
a(g14
S'145EchPcRSzcPDorDu755uxJgsrSGMzsp3'
p1762
I2
tp1763
a(g14
S'1MeMqEFPj9oCBnbmpHh2igMrfW6rbTtP1H'
p1764
I2
tp1765
a(g14
S'16FetxyqXVDCaag5MD6QomraMSt32m75un'
p1766
I2
tp1767
a(g14
S'1N3MwmnsEXiutbLZud8Um7uiEhgP1aks32'
p1768
I2
tp1769
a(g14
S'1GA3xZhmKaHGuoFXFhAZmzRPrB8wZHggn9'
p1770
I2
tp1771
a(g14
S'1M2P1jZ2S4LMBHyLQJ8srXwz66UoHwFmAz'
p1772
I2
tp1773
a(g14
S'1P5ogrZyRYtwUxxYbWi4N1pNEufEi985Px'
p1774
I2
tp1775
a(g14
S'1MGw4K7qu6LaWmTBm1wfxsDeBsZRrt4vAv'
p1776
I2
tp1777
a(g14
S'1HY96M3w5uREJRwhGn2eqwF8Qfm5sA47rL'
p1778
I2
tp1779
a(g14
S'1PPtsTFQvrYmqMrXpwXWaRnteX45HbRoFW'
p1780
I2
tp1781
a(g14
S'1ACE4PmzvPNbKzQK3Lg7Ub8TUEbwwDqeXn'
p1782
I2
tp1783
a(g14
S'17sBnp4cSGE6nQR3JyweEJF31v8PG8yQaN'
p1784
I2
tp1785
a(g14
S'1PA5p1J9fsfVj3Lrqsg9MzX4j8cUnXGRnY'
p1786
I2
tp1787
a(g14
S'16GVaWocwbgNyUrUM7ZAYFy6xi1w1FL9xC'
p1788
I2
tp1789
a(g14
S'16hWdbzAVdqfVAB7rGoUruByj6jRzy32LA'
p1790
I2
tp1791
a(g14
S'1JWM6EZ7NEBy6gNDenfcwynSE6ycfonbGZ'
p1792
I2
tp1793
a(g14
S'19XUY1sbZCMf3bVpc5SU3byd7TRJsJb1Ga'
p1794
I2
tp1795
a(g14
S'14TuTLUbxcydwCxbNxHe3yfssS92xPGWR3'
p1796
I2
tp1797
a(g14
S'17Twhw3wifqiSzVLip6XTjcTobDwoUWLZ1'
p1798
I2
tp1799
a(g14
S'1MT5gFgNTRwZ1FCCzq9wU3V54P4r7sRNNR'
p1800
I2
tp1801
a(g14
S'1NxCmJmwM2dYJDKSVrc4jJ9H6LH5bcrN17'
p1802
I2
tp1803
a(g14
S'1Hgj5YHHcZD6SdFsNAb141DoLtcW4Kdo9B'
p1804
I2
tp1805
a(g14
S'1CVfHRu5FkEnHpYuuXnfvgCxTFEqXyq5gx'
p1806
I2
tp1807
a(g14
S'1HGnesbr2Ea9Xt5sbMbc1R38NjbR4R43Hw'
p1808
I2
tp1809
a(g14
S'1JgUok8cjS5o4hgVt1ojx7JVWMEfZF2RVe'
p1810
I2
tp1811
a(g14
S'1NWu3mDbmZEvxhHnr3GVaDZZHh7m1YGGGR'
p1812
I2
tp1813
a(g14
S'17LujcK9mVkN81bX1noBEMGC9vPyEpAqHy'
p1814
I2
tp1815
a(g14
S'14k4ovV77VkETqcBjnPy6dfvcjaDn9aaqd'
p1816
I2
tp1817
a(g14
S'1Hgaj3tPcT8GGF6jKzZycvKegmDSWHt9EE'
p1818
I2
tp1819
a(g14
S'1EyThTAreJzxotxEaxX2KjQswDHdKab3CC'
p1820
I2
tp1821
a(g14
S'17cFv6EowCF6jsSyvEwPnnfLnhfCWjQ6dC'
p1822
I2
tp1823
a(g14
S'1Hgj5YHHcZD6SdFsNAb141DoLtcW4Kdo9B'
p1824
I2
tp1825
a(g14
S'1F9QUmYXiL8xRSXQ8N3GJ9o9HX2SofzJR2'
p1826
I2
tp1827
a(g14
S'1DAJ7XaeDvYdpb3FXRB9SiVZuoXXhfq3Qj'
p1828
I2
tp1829
a(g14
S'1PZpaxUMr54iXGpP8sMayADChDnD1gzL1E'
p1830
I2
tp1831
a(g14
S'19RYvytGmGamRuHX3s6UHLaDvFfPVcPMnU'
p1832
I2
tp1833
a(g14
S'1C1r2rLcFBNozUQFnjKZBKak9Gj4wSrKtH'
p1834
I2
tp1835
a(g14
S'1FcTthqvUjqX53ucH3H2jcV13fuV1mYdu'
p1836
I2
tp1837
a(g14
S'1JhCgvpqG87WPNugZn25uxgAr4msS6UPPL'
p1838
I2
tp1839
a(g14
S'1NXYtDQrC79AKtR8fX6X8hR5Zoraox9Byo'
p1840
I2
tp1841
a(g14
S'15gbM9deU19Z1foPu3iXF9wDaoDdZDhXgi'
p1842
I2
tp1843
a(g14
S'1MnmmRBBWoWFJzbH58Dg7uc5waFELQvAy4'
p1844
I2
tp1845
a(g14
S'1MfLVgW1PYS3RHA5jtA4EUBPYHwuKWjAeg'
p1846
I2
tp1847
a(g14
S'17VAsR5qta7pgiwmKYrENeBT6zezN8EpLb'
p1848
I2
tp1849
a(g14
S'1J36bfzCDysHvbWiP7fhRGbkHrWRhVBimG'
p1850
I2
tp1851
a(g14
S'16wJtbxwHSYKQPevZnCb8Fcq9KyMFMYXGH'
p1852
I2
tp1853
a(g14
S'1MAVVmcaAM2SWYCQPNhcRGTCJkh7ShZg2S'
p1854
I2
tp1855
a(g14
S'18Fjsgz4L3MAKxYqGqjRh4Pm7zUE1Lkk6d'
p1856
I2
tp1857
a(g14
S'1ENZibC18peuVrfamVqXZN2L9fjau8aK6V'
p1858
I2
tp1859
a(g14
S'15q68gs3j1deLL83E9tGcYeFCfrqdBFAMF'
p1860
I2
tp1861
a(g14
S'1QK6niLmpsnJqyojqCN9yT7Fqhnyrcw7x2'
p1862
I2
tp1863
a(g14
S'1CihH2ANieZJfNRgpYCrHh82nVyinSrNSi'
p1864
I2
tp1865
a(g14
S'1CALQicVbPRCcVP8wxcU9bXc4FowmBvsCx'
p1866
I2
tp1867
a(g14
S'1AB1LuZqnNhtH5oHPUjQzcXDpM3z9sj2Hz'
p1868
I2
tp1869
a(g14
S'1946nNDaD74ceugeXNE1iB6HydtAaydRz7'
p1870
I2
tp1871
a(g14
S'17faMzmtqsjbd4GmwnSomnnxYbQ5j1Dpy1'
p1872
I2
tp1873
a(g14
S'1CgAEdWGQdGsmXx5zeqJCM8C6stwVULEY'
p1874
I2
tp1875
a(g14
S'19HskFPnUkaKceqtPmPBxQJQe75hbCSFng'
p1876
I2
tp1877
a(g14
S'16JDU4877Ww6xv2ZrFMtiii7TikQLA2BaN'
p1878
I2
tp1879
a(g14
S'1fvCnvJwDmLb5qz2w1bGtqVzcQHqx9vnj'
p1880
I2
tp1881
a(g14
S'17sFA35JxojFPepGUt4pjFymEGrB2hnAdP'
p1882
I2
tp1883
a(g14
S'1Fq66bkpNVCrbiWrsoLHWQ6NkKTL6krMVR'
p1884
I2
tp1885
a(g14
S'17mzL7gDzjfHKZ69aU3tdBV3Uhboffe6nc'
p1886
I2
tp1887
a(g14
S'1MbyHTcKeWEBirGez3H8qBsNJh4gqxhLHH'
p1888
I2
tp1889
a(g14
S'1LchkeRbdMyGTStA8nenAu16Vqn2BSdjZ'
p1890
I2
tp1891
a(g14
S'1JN2rYPSKsjFcr13K4UpF8ADcRdZN7cjzd'
p1892
I2
tp1893
a(g14
S'1QJ4HCrxpmgFYmh47vHw8puBnkhPxmfysp'
p1894
I2
tp1895
a(g14
S'16Snz1m94QwrVtSbaFkALhyiVsJ1DmVYjb'
p1896
I2
tp1897
a(g14
S'1HCSDyiApWCkrNP1nB3XxXkZXRrSnwwzEo'
p1898
I2
tp1899
a(g14
S'1GcH4zMdW2PStURt2oox8Nz4quit6wbeaq'
p1900
I2
tp1901
a(g14
S'1EWCntQ9C55Bc3UsHqSQMtKGrmW275Ah8V'
p1902
I2
tp1903
a(g14
S'15jQJ8xkeFCKze78ryypfxprGWLFti91VT'
p1904
I2
tp1905
a(g14
S'1BX5h58XvuEQheNy7fBsok4YRwe35Ztq4n'
p1906
I2
tp1907
a(g14
S'1HTTR1Sc8MiKrTejaTXu3SqkvTTwr9tyVp'
p1908
I2
tp1909
a(g14
S'13eutzepM43PuY6FMk7tSLkQo8KiXiC69x'
p1910
I2
tp1911
a(g14
S'18wAasJ26oSkuwFxq37yjUwLSyRbqtASpu'
p1912
I2
tp1913
a(g14
S'17Yzw6hwEEuWbjpK8WfL6vM7yaRfuKHWan'
p1914
I2
tp1915
a(g14
S'15NPNdHb9deaYssP2vxnFAnr3vGrnGCpkf'
p1916
I2
tp1917
a(g14
S'15zJZb6REjLBRRR9PmbVDoBhHeq5HHZZ1z'
p1918
I2
tp1919
a(g14
S'1Es6oNAqanAaB1mF3bnPSqJ8z1FypqiMkw'
p1920
I2
tp1921
a(g14
S'1Hia21P5jBfrrbAC3wtbr6M4xgiDuveXiR'
p1922
I2
tp1923
a(g14
S'1JApSsrJJmgXyyVS1ww3LLQtSzQaPNFX8Q'
p1924
I2
tp1925
a(g14
S'1sU692k7FtXafLRT3bFtEAE6Bv7WkCj9m'
p1926
I2
tp1927
a(g14
S'1GbpqkTQDFCb1LAdvErW3Bem4dSkPHokPx'
p1928
I2
tp1929
a(g14
S'1AT1bmZwPbysKBQt7SMRZiTFat4hufAAco'
p1930
I2
tp1931
a(g14
S'15FDj4NnnrN3uBmVnRyMj8uNcCYSYcV8Ht'
p1932
I2
tp1933
a(g14
S'1P2D7D6axAgNKgCJFH8phCgXCAobd9jLKV'
p1934
I2
tp1935
a(g14
S'1LDUG986A6zPcu4W7xAQMswDtFQQ1iifSk'
p1936
I2
tp1937
a(g14
S'1FbrumFWqqDEmHGvxLAPK3UQMVo7RAgpL2'
p1938
I2
tp1939
a(g14
S'12uxDhAwowk2J3SNtzsvqLPgTZNfBbwGVi'
p1940
I2
tp1941
a(g14
S'1EBdUEwzERxvL9LqZV6ftYKfLLA2F4JzQB'
p1942
I2
tp1943
a(g14
S'1GNkbofa8F3FGsuQ4uPFKA5GPCNe2cmjyV'
p1944
I2
tp1945
a(g14
S'1FTRWkjAQc3rbWxH9Pxkx7fjWRhN1LBWD4'
p1946
I2
tp1947
a(g14
S'1K5ePbiyq1PUbxrRpnJjDjBxJCi2fvkDBv'
p1948
I2
tp1949
a(g14
S'1H5pES1ZNAJDoHGhuibhs6R4zgdoSyetVZ'
p1950
I2
tp1951
a(g14
S'1Ji4N5d89BUdM3e88qcUuuWMkKzUKpudYP'
p1952
I2
tp1953
a(g14
S'17zW6hjVc1gBxrnnhHk5ckGiC56MnDHpwb'
p1954
I2
tp1955
a(g14
S'17iavy9JwkPNsPn17dzFkWvECv4wZaGgqU'
p1956
I2
tp1957
a(g14
S'1LiTjPa6mcDViRyEvasfUFd1ja4EcnTZp1'
p1958
I2
tp1959
a(g14
S'15LxkFDap6Fes7HqR8EDwjcu9fYTAoohnz'
p1960
I2
tp1961
a(g14
S'1ACE4PmzvPNbKzQK3Lg7Ub8TUEbwwDqeXn'
p1962
I2
tp1963
a(g14
S'1FftY1mWq65aGECgy6vhPCVB5NPCqXUNU4'
p1964
I2
tp1965
a(g14
S'1EENAuMtdGgMEQRRMrxCS9BVRpbo1aMFN8'
p1966
I2
tp1967
a(g14
S'1Jj4Ppfocq5HNEVg6ZmFtrruRDC1Etw91q'
p1968
I2
tp1969
a(g14
S'1KpkbVywGzya3w2AzrU8ZYEo6QMFSEexZD'
p1970
I2
tp1971
a(g14
S'19pxU2KMpLMrg1STuE8EFdBRM96znwdHSm'
p1972
I2
tp1973
a(g14
S'1DKPfFHFa96Pif22aNii3uZKEVACWmBB8n'
p1974
I2
tp1975
a(g14
S'1Pe9SmqsuNz7zRrkKmrmNW9KCfQyhGxbXe'
p1976
I2
tp1977
a(g14
S'1FzckSAXE9tHM8GZ7fK57GRaZQcwetoznQ'
p1978
I2
tp1979
a(g14
S'13TqJFKwvrijXmTjZMwSHVudyxkMCwnwrC'
p1980
I2
tp1981
a(g14
S'1BugdBEz4dJE5wYrAYfAib8ivAUnP1DhPY'
p1982
I2
tp1983
a(g14
S'12Eaqy2D8euBWaXqek1c5gTywedugSD4wS'
p1984
I2
tp1985
a(g14
S'1E95V7DfNpaVje1bqdLrQ4FtY8FANaZBy4'
p1986
I2
tp1987
a(g14
S'1HZySEiPRAQEeDAxbhMeRraNom4Pdno8fR'
p1988
I2
tp1989
a(g14
S'1JQ2FBPnDw5MnevNdqvzCd6nK8PNQwHDBc'
p1990
I2
tp1991
a(g14
S'1Lp1WDhjjvzhZgF11Gk2iNap3e8Mq3N98w'
p1992
I2
tp1993
a(g14
S'169Qo1oVXsuSFbPARwKrpHcRVHkKfDnH2B'
p1994
I2
tp1995
a(g14
S'1HXoUgwEoC7JvJfrQHSmQmKoh6WxifDtxx'
p1996
I2
tp1997
a(g14
S'1L1QKXdwtXt3nunUR9qs4XyVXDvz9Uis6R'
p1998
I2
tp1999
a(g14
S'1DGSUwA8a9CjDcf2nX82bzqMq3iZVB7EUS'
p2000
I2
tp2001
a(g14
S'15ccBrygvJy2rUmHhLPrhP3BDYbZVWy6G3'
p2002
I2
tp2003
a(g14
S'1DAcmAJoE1wVD2Zagsx2am9J9qeiUoFuZg'
p2004
I2
tp2005
a(g14
S'1JAhmoPEt8xpNcHYLmNJpQqYzfK38rsp2s'
p2006
I2
tp2007
a(g14
S'1A1EQbUwsEUV74JfpQSzaYftBH6YQHmKXG'
p2008
I2
tp2009
a(g14
S'1JSZ3V4CxH9Utz7D3kv35wNheith2QQJwa'
p2010
I2
tp2011
a(g14
S'14HDXSJUCsHSteDs2gDwMdCGYrMumh8RvN'
p2012
I2
tp2013
a(g14
S'1D3JWTAA4dQ9WSmmhqqENDMYCeLBHtPeam'
p2014
I2
tp2015
a(g14
S'179MnX7d5dQWzjrRRoJ68Mnq23Vdx1ftMH'
p2016
I2
tp2017
a(g14
S'1JLQhtMCx5JsBwz2iDFdqMnG3GFjssHN7T'
p2018
I2
tp2019
a(g14
S'1FdgvnKhikwZvjZX61uPkpHiVnj2ay5a4f'
p2020
I2
tp2021
a(g14
S'1KsoSrNX5qZEejpLJjhJgygCXFkbRwVBVr'
p2022
I2
tp2023
a(g14
S'1Mobyp3EA7BQ54fiBST6KJ6Le84pN1kQSw'
p2024
I2
tp2025
a(g14
S'1AWDCwR8NGWiRH7dM8QNyndCWBCufujCD7'
p2026
I2
tp2027
a(g14
S'14Hsfnx5A92cdnJ3irBCJ8Fi3T1eYrboy8'
p2028
I2
tp2029
a(g14
S'16YDUBDtRseVjpeHmmf4sNHruHKGUidBFu'
p2030
I2
tp2031
a(g14
S'1J6oqGqK2q9xMnwxqoMoQQYYvdPtjERXTw'
p2032
I2
tp2033
a(g14
S'1CrTpu981qA9KXpmCW9Scw9WnYwZW38e86'
p2034
I2
tp2035
a(g14
S'1CN7EPSP461Q8WV7kEAqiD4FroLBS1R5ex'
p2036
I2
tp2037
a(g14
S'15ex4Dg9iS9B6kidEgyHku9WPqKZcNwpWN'
p2038
I2
tp2039
a(g14
S'14ntRNtbecC5MudiUBTAXsjVCwGsEVayQG'
p2040
I2
tp2041
a(g14
S'15sudiPnyyb2S2mTH14YyYixoQcyq2Ar6B'
p2042
I2
tp2043
a(g14
S'1BRYt8JEsEFdexxnNkU8X63YrUo1dQdiY3'
p2044
I2
tp2045
a(g14
S'1FMw3Z8oxUoaNKFS1ydLx1UL551LpbDcnz'
p2046
I2
tp2047
a(g14
S'1McbmHg4UPRFNJUEgXyZ1Sh3pVW9oQSgR7'
p2048
I2
tp2049
a(g14
S'1JYTEpDVrJ67dpiL7FPZD9HgGRBtiLAnxZ'
p2050
I2
tp2051
a(g14
S'1LAACLQ1BMKHwCTCw3bSx93ZyJbcEhdTuR'
p2052
I2
tp2053
a(g14
S'1J9GmJUbR2T94cdfXTtqh1cWLN4qf21mS9'
p2054
I2
tp2055
a(g14
S'17Ty4V4wHSXGECGfmV6FhbXpXZrtBUuwbC'
p2056
I2
tp2057
a(g14
S'1DQ4vAsdoKt6czgoYFJe8ztBJAChaXXvS7'
p2058
I2
tp2059
a(g14
S'1LfXq6USc4q8puzXK5iqF3v5Yy7VTsimNi'
p2060
I2
tp2061
a(g14
S'1FEarjxFTSRSDC22oyeKEzr98JUn5TiPbR'
p2062
I2
tp2063
a(g14
S'1LuombjZxJZ5jBkpki9aSWN1SJGcJcHXxb'
p2064
I2
tp2065
a(g14
S'19ZXAQpHnYanX19k5sXaQgMxXpG3wVeaRQ'
p2066
I2
tp2067
a(g14
S'14hK9ubkY2nttKb27T12y3HxCdfEpg7wbz'
p2068
I2
tp2069
a(g14
S'129dn6Mh3F13cfzPpRTukcfLGVcZW19zf4'
p2070
I2
tp2071
a(g14
S'1GqtKzUxsHuavg4dEsNXBnUcT5oqBtCwkn'
p2072
I2
tp2073
a(g14
S'19tTiKxFQr9WmDco2bJkiog9jLJ2ofSyzo'
p2074
I2
tp2075
a(g14
S'1J4rLvnU4qFRafqUTJ9rxwmu2JDPtDHF8t'
p2076
I2
tp2077
a(g14
S'1AACjgorwv5T1jpNTciMe8sGrhmtyfuPT6'
p2078
I2
tp2079
a(g14
S'1JVqnQWp4CFBsMGqFBsVoaaZ7NXKZYnVmN'
p2080
I2
tp2081
a(g14
S'1P4rUkwhGa7gMjAdUoG6d4SQyW5PZw11G'
p2082
I2
tp2083
a(g14
S'19jGQDzfDeN22upNc9aoTgVD9hVRFv5NPg'
p2084
I2
tp2085
a(g14
S'1PePpPKwQJRRfBFdQkmcYZrryZbJEhWFHr'
p2086
I2
tp2087
a(g14
S'1CvRbqr9cL7JgMCNnmZUx7CZTCjRMPVaFZ'
p2088
I2
tp2089
a(g14
S'1FHwni3hySTPhifjK3FMxsA2cKw4nYJ6n8'
p2090
I2
tp2091
a(g14
S'1PEYkPrCsjjBdKaRECcXw6hDWbTxEvH8Kk'
p2092
I2
tp2093
a(g14
S'1CqJuA6xuvdsNLoLcstNnAxs8JunhbgvSw'
p2094
I2
tp2095
a(g14
S'15DD3rSYxrxPztkbhUr6Pf9aChsjqUEcGD'
p2096
I2
tp2097
a(g14
S'1FsV9ggWwjXuHsJuMRrkFbt6sY7rUjh6ZK'
p2098
I2
tp2099
a(g14
S'19ixXN7wsLd727RnvMUnu5qhcPPPxW478n'
p2100
I2
tp2101
a(g14
S'1MoyMzzKe6pwFVsueAAfJoVzYqqt2rTXfx'
p2102
I2
tp2103
a(g14
S'1LrkzTZqpWhGqhwW1LR6Hsram5xw9X1GYX'
p2104
I2
tp2105
a(g14
S'1CT616gn7KCokPvsRA4DDi2Vo7f1vQ8EPM'
p2106
I2
tp2107
a(g14
S'17DQ5wDNZqXApF3uk4dyLMg7gacegMzw6x'
p2108
I2
tp2109
a(g14
S'1GCqqD8pGLxd88PQJ6jpvETL5mfRmLjwFm'
p2110
I2
tp2111
a(g14
S'19ASaMBL1NRB8QAep52t3UqUBB37rM7aYj'
p2112
I2
tp2113
a(g14
S'18Xv6zZmdb8ttj1Kr6Ep2yGzWVe8sjQUtf'
p2114
I2
tp2115
a(g14
S'1PyDxfVQGfBipQeWsba52NPucU92bPWPCX'
p2116
I2
tp2117
a(g14
S'1CFwSeXP6YJtXhYD51As78jKccr5xayqUH'
p2118
I2
tp2119
a(g14
S'1Gm6BESdWtbqkieSaAsXbkpqj7wyP5wjsE'
p2120
I2
tp2121
a(g14
S'1JC15ZmbwGmVYKjVQGqTzDFD881PrkGWw8'
p2122
I2
tp2123
a(g14
S'1BdVQhT52gUXp1HedUa9DdLMpyYQpzF41v'
p2124
I2
tp2125
a(g14
S'12Eaqy2D8euBWaXqek1c5gTywedugSD4wS'
p2126
I2
tp2127
a(g14
S'1GBaLWGwubR1mb2qMrXHCXuhqXEmmkxcp'
p2128
I2
tp2129
a(g14
S'1QFUzbpdMffHkGg7Vb9LSd9GUisz8cCx7H'
p2130
I2
tp2131
a(g14
S'1EtfXJQS719xEoY8KekptXKaDQ5pj2wkUP'
p2132
I2
tp2133
a(g14
S'1HfD7wzBjtGEXdevrW9dTt3dK6AMc466Vs'
p2134
I2
tp2135
a(g14
S'1Q9ZrKQakYMbvNKE6uFJVthQHcUR3px6Ai'
p2136
I2
tp2137
a(g14
S'12CLGK3F9Sn8SX6kFCUVvmcvUdmzg3JUG6'
p2138
I2
tp2139
a(g14
S'1JkDXArbp1798WwWtsgk1fRUBzWpdpfNaB'
p2140
I2
tp2141
a(g14
S'1PqbFEbnw4czTWdceMg6hPRDJ5mb2Lvbqg'
p2142
I2
tp2143
a(g14
S'1NLZvbs5j6uQYrTB3Ywm5tbBCHfHGtjJSU'
p2144
I2
tp2145
a(g14
S'1Kh9XBixebUUqgfn5XGAyvzgGuZ6Uisdvw'
p2146
I2
tp2147
a(g14
S'1APpvUtJepAV6prw7SeSo4FF24ayG6DASQ'
p2148
I2
tp2149
a(g14
S'1FHE9Zg7pWP3X3LAb2YXQ5FAZ6Agg1eqWi'
p2150
I2
tp2151
a(g14
S'1DsELzRWj4bsFdBfZRpTP78LBKtz8TcGi9'
p2152
I2
tp2153
a(g14
S'1H53HAPA1Nu3CkE1hnMgw6fPu6oBJuaJ8G'
p2154
I2
tp2155
a(g14
S'1CTXWbyRQrTwtWE9sWvNpDdzSoYz9nfBx5'
p2156
I2
tp2157
a(g14
S'1N4CSJKzyukpF29m2TRnQP24m6WT11nJPC'
p2158
I2
tp2159
a(g14
S'16uWLkrLtfpz1TNMzRiqdTx4Xc7ZNf4Eaw'
p2160
I2
tp2161
a(g14
S'1NLq8BzAo1diKVNjHgh5nBmbXsE9TbLkM4'
p2162
I2
tp2163
a(g14
S'1NtqM89wSndeUjZEts6AJeuLPWDvi2rPd'
p2164
I2
tp2165
a(g14
S'124hLgFnbVjokj64FvfwxvZUPbYNSVaXJJ'
p2166
I2
tp2167
a(g14
S'152uSBuD1AyWjnRzQ6KihzTcKjj6f8DFZS'
p2168
I2
tp2169
a(g14
S'163L2gHPVKxJMwi5VJP6dwVi137CUK4yVP'
p2170
I2
tp2171
a(g14
S'17cGBjnMSmiwp3RvVbnQPF9Fc1sSsHdkzy'
p2172
I2
tp2173
a(g14
S'1KCGqn6Q6GWxcwVtn9qCKsUpgU25mTJVY2'
p2174
I2
tp2175
a(g14
S'17iAAXGb1F7PimDjLdk4L8dxjscDZFsD6i'
p2176
I2
tp2177
a(g14
S'1FErSE5m6v3txT8a9ntnoYc1ocuVa4QrBn'
p2178
I2
tp2179
a(g14
S'1ABUhownVYDhBVGqiCETNjveVvJ7iwQoPn'
p2180
I2
tp2181
a(g14
S'14j5WeDGopmMgMPTkTu3wA7cY5MvtaQ1d3'
p2182
I2
tp2183
a(g14
S'1Nio1kLDhSBgN27ZAVbV4eaLf8LerHPPX5'
p2184
I2
tp2185
a(g14
S'1KjFb9ZbvDtycv8tPBLSqLRgVT6QJWnoV2'
p2186
I2
tp2187
a(g14
S'13DDG1ipxpSJebeJwfomPsuJBmBu1tMZRr'
p2188
I2
tp2189
a(g14
S'1dUPx3bL8sRTmopahqEgr5MvoJSt5xKAt'
p2190
I2
tp2191
a(g14
S'1KbvG8WR1jZfSMrc8hymBKqKbxsYcZm4Na'
p2192
I2
tp2193
a(g14
S'1Nnw75Q2z9XzjNjbqZadwrujChoM5f3NjU'
p2194
I2
tp2195
a(g14
S'1MYafUWKLMPYu5EpgSam2t5RAUUJA95q6Q'
p2196
I2
tp2197
a(g14
S'1FSGeo8wJk6PGwG8LdBvcB4gSPM1pP2nN1'
p2198
I2
tp2199
a(g14
S'15ZF4Ld5QpddVp8UyrFYCNFLG2u4oGYhTZ'
p2200
I2
tp2201
a(g14
S'1HNGHyhgYMgBUrbKEQUnuxydXnuM3eXTq6'
p2202
I2
tp2203
a(g14
S'17u2h2uqerWEAx3YbhFf9cVxwNVKPBPDci'
p2204
I2
tp2205
a(g14
S'1Hgj5YHHcZD6SdFsNAb141DoLtcW4Kdo9B'
p2206
I2
tp2207
a(g14
S'17H4WZasoYvGTHVxR9eAF3cVHR7jRC7aa1'
p2208
I2
tp2209
a(g14
S'1GWn5L8g4oNdVZy3B34XBk9yhGJtJKstMC'
p2210
I2
tp2211
a(g14
S'1BEgMrBSGgSXKktdkivXhf33F4nsw6wson'
p2212
I2
tp2213
a(g14
S'1CShfhNMvpKXRiCiPyaRfHW8hzs7RZgbXX'
p2214
I2
tp2215
a(g14
S'1AB1LuZqnNhtH5oHPUjQzcXDpM3z9sj2Hz'
p2216
I2
tp2217
a(g14
S'1GAp5XLFArtzy9cchireJgXr4ZxBN3WsnV'
p2218
I2
tp2219
a(g14
S'13DgXYGB2utbrRHupPe5t25X6v5baGXAJa'
p2220
I2
tp2221
a(g14
S'1JYTBsNDbfGMvawpAs9NbxhH5hza5dmAJy'
p2222
I2
tp2223
a(g14
S'1PQHTUXYotgHrG1VQpmUgfjTR8TTPKSodW'
p2224
I2
tp2225
a(g14
S'1MFFE4CEKaGwTmpP7EHSgY64mnQ2P92hva'
p2226
I2
tp2227
a(g14
S'1bHyGVybnw3jTt13uaBvWJtGEw53zsr7o'
p2228
I2
tp2229
a(g14
S'19HdkGArGs7g5NddStkHopZYWd5yweMCaz'
p2230
I2
tp2231
a(g14
S'17nZXG3QWNAxd33uRh2xYQFKWrvjp6Jy5G'
p2232
I2
tp2233
a(g14
S'14j5WeDGopmMgMPTkTu3wA7cY5MvtaQ1d3'
p2234
I2
tp2235
a(g14
S'12nocqoWdSYMEsE2kLdGxX2Bb2z19HpqJk'
p2236
I2
tp2237
a(g14
S'1AoEfbWv58gi1WRpU8srrt2mej1NwLZJRG'
p2238
I2
tp2239
a(g14
S'14e48qkf8H4jdhDXCemM5dpvPHgu2QXZDT'
p2240
I2
tp2241
a(g14
S'16sqiDgCxsZGsQ3i72JQWpj2ncDErRWN1t'
p2242
I2
tp2243
a(g14
S'164z1K8n9R7eYAbxwgXHvmLMU2Fpya8ciP'
p2244
I2
tp2245
a(g14
S'1F3PWjVsNmFzP3meyQUuUTWbbTvKHVRwk8'
p2246
I2
tp2247
a(g14
S'18VTdMUiUtGXLR2e4muJMNn1kSHZMbAFfp'
p2248
I2
tp2249
a(g14
S'1BqvpLtcbbkSPw7sBPKjC4n6HU7Djdkzqz'
p2250
I2
tp2251
a(g14
S'1PCS5gjKLGAJxHp23gUViQaZ3mnFQp61Dx'
p2252
I2
tp2253
a(g14
S'1GQMQuTA2acvUmxYAeskuE19qmcLadqKZ3'
p2254
I2
tp2255
a(g14
S'18fTKj2ayzQxzDdhKZAPbTwEbW8bGVdhNJ'
p2256
I2
tp2257
a(g14
S'1J2g5nqSNtYTZfZQf72jN6udDBPNa53JCN'
p2258
I2
tp2259
a(g14
S'1PviQSdMA2ecY9abV6DwZtwReQLxrqQt81'
p2260
I2
tp2261
a(g14
S'17Z3dtHNnVtEo7RQ9tao1qKaL9CDXgGbS'
p2262
I2
tp2263
a(g14
S'1KjQpJdpwetKFiyBUWfTd5rsxYyHPqZ6nT'
p2264
I2
tp2265
a(g14
S'18Xjz2DUaXjoG11DQ79MidiR6QFjgZgD8M'
p2266
I2
tp2267
a(g14
S'15X6gbA8svfuVQq9AoMn7NHV8tiMuYzAyA'
p2268
I2
tp2269
a(g14
S'15ZSAge7bRbwn2Dd5VVwzFUMQ8ekRZpCLM'
p2270
I2
tp2271
a(g14
S'167vSjh6arc11LKxmXHeAckT2WoCNfs81L'
p2272
I2
tp2273
a(g14
S'1FUQHdqCUwWvUkWpTmWEvVPhzE2A5fV1nd'
p2274
I2
tp2275
a(g14
S'14yJmpJ3JMLDyxRGr1TquA7jR2NyizNsux'
p2276
I2
tp2277
a(g14
S'1BmnhdFGVvn3jscP2zMgrkLJed6ES1cMsn'
p2278
I2
tp2279
a(g14
S'1CRSnpCzba9jdMPixSR9RFseW5Sf9DzZiv'
p2280
I2
tp2281
a(g14
S'1CoW1vKk6GVLtyrNoaLJbJoRNQKQM6BWmh'
p2282
I2
tp2283
a(g14
S'1PHJ6yRTqCREeQsKi6AgtJhttj92uFMzjM'
p2284
I2
tp2285
a(g14
S'13o5JHf57kUWBAheeydbLzVuYH7fEKzSbW'
p2286
I2
tp2287
a(g14
S'17nZXG3QWNAxd33uRh2xYQFKWrvjp6Jy5G'
p2288
I2
tp2289
a(g14
S'1BcVnJoyLs9YBvWiFDjAyFKqfm1yKDPwuY'
p2290
I2
tp2291
a(g14
S'1DFSenTm4WEyHmogwuMYGcn16v8SqUs1Dp'
p2292
I2
tp2293
a(g14
S'1N6duZXVc6cz4uPMHb9oANfAMr51V8Nvtc'
p2294
I2
tp2295
a(g14
S'1JErPh5txErvaViwSdH1EHeGJv9UrSWLUC'
p2296
I2
tp2297
a(g14
S'1FTRWkjAQc3rbWxH9Pxkx7fjWRhN1LBWD4'
p2298
I2
tp2299
a(g14
S'14fN29jRTM6WDWiZxVGt31KCPpfJKft4JC'
p2300
I2
tp2301
a(g14
S'1JdDnaPRmmDXhHFETAa8UDBaeSU2gF2Ydr'
p2302
I2
tp2303
a(g14
S'1Ptgyz7pJUuPNMvuMXVdHFdbjjeae3ZTVq'
p2304
I2
tp2305
a(g14
S'17i4hMcrzgH7rt5iHpoBVfeJ8NL8VyxGfL'
p2306
I2
tp2307
a(g14
S'1PGM4z59UM7JitR5oZUGmurgAxxhecmtZx'
p2308
I2
tp2309
a(g14
S'13A6ceFTRQ4oEPxWnpyKsZwrCnYctn9cZ8'
p2310
I2
tp2311
a(g14
S'18jgPpGpTM96H1VjkKMGcPt1qXAMj6kAgY'
p2312
I2
tp2313
a(g14
S'1Hi1NqCm835mnV5dQNMDc45YSXwvKTtnGD'
p2314
I2
tp2315
a(g14
S'1AGMje2AJPPNDLmS9ucvnHu7i4jGXHj3Wd'
p2316
I2
tp2317
a(g14
S'1Q4MLCYX1ogg55iXjuMsHzScRWsQBCyJFq'
p2318
I2
tp2319
a(g14
S'1Dszo7NE477YAVfD64wCotn4qFWkgNbM7h'
p2320
I2
tp2321
a(g14
S'1PX6GE6NL16QyzWdZoAPECAjpJiF1Ku9wh'
p2322
I2
tp2323
a(g14
S'194s6winVQnB83MEMaoKSaJcNz2Y2jCE52'
p2324
I2
tp2325
a(g14
S'1J6oqGqK2q9xMnwxqoMoQQYYvdPtjERXTw'
p2326
I2
tp2327
a(g14
S'1G89Zy7x85pANQ1h5HiHxw6rcKTod1VemN'
p2328
I2
tp2329
a(g14
S'18NQVgk5dMTeKX9P77ST3dAPd3P6SSF6Xt'
p2330
I2
tp2331
a(g14
S'13dzR8JmYuZaHMWJ2vWiacuqto9ACqbKD4'
p2332
I2
tp2333
a(g14
S'1LNEZHTCWnzbGmRStW1SFhu8Wdx6gXwUCQ'
p2334
I2
tp2335
a(g14
S'1DYWJnZZHd7t36jggXCme1up3DGZrnUGub'
p2336
I2
tp2337
a(g14
S'16ETxL5AzQiiQnA3ku4oVnj5M3z1F127ca'
p2338
I2
tp2339
a(g14
S'1GnDXJM8XFfedsDtXh9c258U2sf7qEDBVx'
p2340
I2
tp2341
a(g14
S'1HNFHoEbP4jXjdhWHXutF4daHvaBkNsmqM'
p2342
I2
tp2343
a(g14
S'12MEzuN1gR3WZmTtas9A7hnLkqqSisF8L2'
p2344
I2
tp2345
a(g14
S'15MB4p9NUXVL96R1JQsPPy7AzYrs6J2maT'
p2346
I2
tp2347
a(g14
S'1NHgjsRbWztZHH8if3hZRGHxcvqH5kVWjQ'
p2348
I2
tp2349
a(g14
S'12LtmBX7m3xP7hHb76cNNgkJnaANtsQZq1'
p2350
I2
tp2351
a(g14
S'15paVTBaeKFxQJsYdLDeShWVNGxEByzNrc'
p2352
I2
tp2353
a(g14
S'1AsViJe88YR9pCinBC6R99W4R3DzSxBXQV'
p2354
I2
tp2355
a(g14
S'1AfADQ4AWTfnHC4u6KVWYUyp36WFtWeqfD'
p2356
I2
tp2357
a(g14
S'1NUWf9SCiRtEo2Wx8i5QxZJ3gfEe4BHeBf'
p2358
I2
tp2359
a(g14
S'1CcSkLbG6rDituJ6HB6F3RcqKshfiExphb'
p2360
I2
tp2361
a(g14
S'12xYeTDrvbNbAeCUb7d9UhN5Pu2Jf3UhSs'
p2362
I2
tp2363
a(g14
S'1K2XHPx4ufkkqujGWv2db6ieRVYjWkeUsS'
p2364
I2
tp2365
a(g14
S'1Fd65zSb6CDWzQ5cAcw75Lw5ueN9S7DdJk'
p2366
I2
tp2367
a(g14
S'17sHTCYZYjYPnUPSaNRrzJfyof4VUnf7q8'
p2368
I2
tp2369
a(g14
S'1MD6KAAHf8MLN9Jtn5CCAy6d1J5i9kdnwF'
p2370
I2
tp2371
a(g14
S'1gDdcXhZhV4u17mK6hPb9D6NMZzP3skdV'
p2372
I2
tp2373
a(g14
S'14HdcP9441t5XkFakyy1rjYJYnkSYGsacB'
p2374
I2
tp2375
a(g14
S'1sDQq35PoKFmnnvG5zkjgxpXMTVKuA9UE'
p2376
I2
tp2377
a(g14
S'1EBn6pfU3aVmS3fnEo899i9fw9W11PTo9z'
p2378
I2
tp2379
a(g14
S'1E5RDEvWZn7K7Hd4ujfQM2EDP1yDfSW68P'
p2380
I2
tp2381
a(g14
S'161qg6EJnKRuUSQX1UKsGMkU8B53qxRfsg'
p2382
I2
tp2383
a(g14
S'1CaSXzqvbbpsZQk1bYBcXWZG4HfrRFnd4C'
p2384
I2
tp2385
a(g14
S'12y2Qe93gNmyqj8jJXmAYW6GvL4XKrNJcB'
p2386
I2
tp2387
a(g14
S'1KTqZsqfADGE1H2P1Q7BEeiA9ppV9qoNx7'
p2388
I2
tp2389
a(g12
S'1Lx9wAKRSgjWvT5QYcgy3iFk3tkmUagZK4'
p2390
I2
tp2391
a(g12
S'1F8f7M4EVAbnKA5XueNWCemRKhTEckndaQ'
p2392
I2
tp2393
a(g12
S'1BMyjpr9SW4hQTgJ6jY2CqYcsPPKZuBCXz'
p2394
I2
tp2395
a(g12
S'12WmbuQg1VmH8Yn44E5nXMYPu8y5LGSjmT'
p2396
I2
tp2397
a(g12
S'1N9Zf5ARFQtLw12NN7VSe5uWgPBJJLbZjM'
p2398
I2
tp2399
a(g12
S'15nhasjGhyWub9Giofp8M8oricbdSSzGME'
p2400
I2
tp2401
a(g12
S'1KnEoixyzjbSD8gMH9qTsRPT15zc98knEz'
p2402
I2
tp2403
a(g12
S'12RcHS7QbGhwh7bM3sbJfrvJKJ8r6BKF8M'
p2404
I2
tp2405
a(g12
S'1JJd73LbQ7y39gAMJ8j5FfT5AgVBQPi8qx'
p2406
I2
tp2407
a(g4
S'15EAyx6ZXgsDRQ4y9yhaCrdkQiuTx8ej57'
p2408
I1
tp2409
a(g4
S'1AB6k6jfajmC6Mm2uMn4BZtp99gHJNcJzA'
p2410
I1
tp2411
a(g4
S'1MPZsccLaYBh6Vd7LxjbSzbemyE683ueZh'
p2412
I1
tp2413
a(g4
S'1NZS9XXzWAhnjc3t8JfdEziMnJ46tdu3FL'
p2414
I1
tp2415
a(g4
S'1MgGhdPqBzuy9XK1be7QNJWEj5mKUPP9Rk'
p2416
I1
tp2417
a(g4
S'1MPZsccLaYBh6Vd7LxjbSzbemyE683ueZh'
p2418
I1
tp2419
a(g2414
S'1MgGhdPqBzuy9XK1be7QNJWEj5mKUPP9Rk'
p2420
I2
tp2421
a(g2414
S'1Mr3kEFgjNPn7iFMtUFCt4dBXdFZfX6AfU'
p2422
I2
tp2423
a(g2414
S'1MPZsccLaYBh6Vd7LxjbSzbemyE683ueZh'
p2424
I2
tp2425
a(g2414
S'1D8DcDgK8i1A9kkCeriwjxpResPXsYKi7p'
p2426
I2
tp2427
a(g2414
S'1NkGuapTkhi42J2H5h3p9c6Jeb4krPy4iX'
p2428
I2
tp2429
a(g2414
S'1MPZsccLaYBh6Vd7LxjbSzbemyE683ueZh'
p2430
I2
tp2431
a(g2412
S'18fKapHSuRr8fdxr3eQkpEsE2tUHqwvoy1'
p2432
I2
tp2433
a(g2412
S'18g35fXeL7DCoBxRa1R2GfFoKXST8dNcyb'
p2434
I2
tp2435
a(g2412
S'18cw2KJaXX2DVN8xhMK9rRCeBXRCurGys3'
p2436
I2
tp2437
a(g2412
S'14fWdJFoqHYxprxeHTjj5f6yg2r3iayozz'
p2438
I2
tp2439
a(g2412
S'1GGXZwPjS2RaPGNHm9hdvcza4GRaQf9SJR'
p2440
I2
tp2441
a(g2412
S'1HkPABpi2tU8qngKwFLaVBzAZvD8sX3qgu'
p2442
I2
tp2443
a(g2412
S'1BVGXreEg1Be1hVnYRUyTibRtBh64RD9wJ'
p2444
I2
tp2445
a(g2412
S'1CmacV437CDPRdsDhtE6FTdfQGMMB1RyVN'
p2446
I2
tp2447
a(g2412
S'1FYcLBxMpo1mTayWN4mgy3EHdTcUis6Bfq'
p2448
I2
tp2449
a(g2412
S'19Zj35EcGLZZ4DPFJzRXiZAMVkErvUCfct'
p2450
I2
tp2451
a(g2412
S'1AGPdo7f8wmzaZNKEphvFMtbYhtJoU5DPV'
p2452
I2
tp2453
a(g2412
S'1BVGXreEg1Be1hVnYRUyTibRtBh64RD9wJ'
p2454
I2
tp2455
a(g2412
S'1Fnwc6j2oNYpMqdvgjEYQHURfvkwH4rX6G'
p2456
I2
tp2457
a(g2412
S'1JJtAvSXhVqj66NvNFofJppEbHUuVgj7ES'
p2458
I2
tp2459
a(g2412
S'13PWYXsJjYu9Sb7fVzAPzvBapEjZBnFpu1'
p2460
I2
tp2461
a(g2412
S'1Br8YgvcitcCZXYwrBs6jg1EkvY6Shc53z'
p2462
I2
tp2463
a(g2412
S'1MzLnDb9fZEzvidtcQmZ8Dw6vqetH1ez9'
p2464
I2
tp2465
a(g2412
S'19Zj35EcGLZZ4DPFJzRXiZAMVkErvUCfct'
p2466
I2
tp2467
a(g2412
S'1JSNUBsU9T84QPQjyzAexkSRLRxjLskped'
p2468
I2
tp2469
a(g2412
S'1nJwFyRmAr7cRjKWRhv94zcq7TKk7J9n9'
p2470
I2
tp2471
a(g2412
S'1MzLnDb9fZEzvidtcQmZ8Dw6vqetH1ez9'
p2472
I2
tp2473
a(g2412
S'166WiqyEYXF331fjtcsDmUfNuwR2NBYtgG'
p2474
I2
tp2475
a(g2412
S'1FQimrDBBCAfezJZ3KPeuUfxhQDqtyC7gb'
p2476
I2
tp2477
a(g2412
S'1JSNUBsU9T84QPQjyzAexkSRLRxjLskped'
p2478
I2
tp2479
a(g2412
S'15PVg3Avv8i9SCUCUMhAB76irgRWLDc4uG'
p2480
I2
tp2481
a(g2412
S'1BMF5SLYo2w7MMs1s1oP1gjNwVr3firnth'
p2482
I2
tp2483
a(g2412
S'166WiqyEYXF331fjtcsDmUfNuwR2NBYtgG'
p2484
I2
tp2485
a(g2412
S'1Gfh4RNiDkbAduNJtstdii4FaG6sQRMF9s'
p2486
I2
tp2487
a(g2412
S'1HQYp5HDCwgHHraGfT8SuM5yi4uQDp3PUz'
p2488
I2
tp2489
a(g2412
S'15PVg3Avv8i9SCUCUMhAB76irgRWLDc4uG'
p2490
I2
tp2491
a(g2412
S'1BPNP1erFx2EkyTZUobQnF7CT2FQSPiZ9q'
p2492
I2
tp2493
a(g2412
S'152nXHegGggoekAYsmymT7ymXgAGyyCL1Z'
p2494
I2
tp2495
a(g2412
S'1HQYp5HDCwgHHraGfT8SuM5yi4uQDp3PUz'
p2496
I2
tp2497
a(g2412
S'1EeeuPJfHgpw56sGjGBeZTqfqzDV5teKti'
p2498
I2
tp2499
a(g2412
S'15E6YPrwM5pPydfvhpsYmi7MYRYpVBSdvm'
p2500
I2
tp2501
a(g2412
S'1BPNP1erFx2EkyTZUobQnF7CT2FQSPiZ9q'
p2502
I2
tp2503
a(g2412
S'1LoR6SWUoGmWYDP8gs4UQtApAeRUgicL4W'
p2504
I2
tp2505
a(g2412
S'1JZZNiN3ZTiAhmBXRvangKDne9vP3zkwUD'
p2506
I2
tp2507
a(g2412
S'15E6YPrwM5pPydfvhpsYmi7MYRYpVBSdvm'
p2508
I2
tp2509
a(g2412
S'1KXe6gW13zRANacV9XTahYKq8XZ8rAckYS'
p2510
I2
tp2511
a(g2412
S'14yk7Aw7EZ4yNoRHMnTPfuauNenxadsWLy'
p2512
I2
tp2513
a(g2412
S'1LoR6SWUoGmWYDP8gs4UQtApAeRUgicL4W'
p2514
I2
tp2515
a(g2412
S'1NqMFCqS2FXXYiKxfwGXhiFXGTR7eW4gKS'
p2516
I2
tp2517
a(g2412
S'1DWmKJpKKAb8BaaCeYmHdZ8qNPT64vfAva'
p2518
I2
tp2519
a(g2412
S'1KXe6gW13zRANacV9XTahYKq8XZ8rAckYS'
p2520
I2
tp2521
a(g2412
S'16STKEHVkFUimTnqghd7G49XUgzvNqX3cn'
p2522
I2
tp2523
a(g2412
S'14ouPE7phSoYyzaBSAKa8gr939jAbEpyk7'
p2524
I2
tp2525
a(g2412
S'1DWmKJpKKAb8BaaCeYmHdZ8qNPT64vfAva'
p2526
I2
tp2527
a(g2412
S'1CiWGbc8K9C2mG2D89DNKRZsXYbSJuVhbh'
p2528
I2
tp2529
a(g2412
S'14ouPE7phSoYyzaBSAKa8gr939jAbEpyk7'
p2530
I2
tp2531
a(g2412
S'12X8a71NqDbDmVyHi9B1N1b3DBAYH5453m'
p2532
I2
tp2533
a(g2412
S'1B3wUEQmu8GJm4pV8BPbQzwYs85yPW7BbM'
p2534
I2
tp2535
a(g2412
S'1CiWGbc8K9C2mG2D89DNKRZsXYbSJuVhbh'
p2536
I2
tp2537
a(g2412
S'1PpYquvqneF47MuJsrBtTXi5cN7vNGeU3C'
p2538
I2
tp2539
a(g2412
S'19oq1MHBhBXAdKEHVWrMtN244mZ9Tcwr6K'
p2540
I2
tp2541
a(g2412
S'1LYQXoDR31xGPWhWi8tP9bc3K4HH16CvAm'
p2542
I2
tp2543
a(g2412
S'1PCNRYycB15oh9L5pD7BHVd2axyZmzwfNJ'
p2544
I2
tp2545
a(g2412
S'17JUQU1voxacc6m9Xu1sJtaKhuUCAVjjS7'
p2546
I2
tp2547
a(g2412
S'19ApNhxSXKUrhNpoPyFveDq7Y7HUyC4qgs'
p2548
I2
tp2549
a(g2412
S'1MPDFQZekoGgtK8PX6i6xsLQfMG7jXk2nC'
p2550
I2
tp2551
a(g2412
S'1Q9PyjqYASzHde9mzcrKXeSL6czgwQEfY4'
p2552
I2
tp2553
a(g2412
S'1Dx2Epkfpnqfv85rupSh92JpXVEet5YxBa'
p2554
I2
tp2555
a(g2412
S'1433JRxbQLWPoHZs9mzoeCYpq9MEEgWH6g'
p2556
I2
tp2557
a(g2412
S'1HcXMN9aLvvgNsA6VfxdMQRB33QvgBFtyg'
p2558
I2
tp2559
a(g2412
S'18mdiWB5xCyUWJPeFWvUAgw5jbdDjSfcjB'
p2560
I2
tp2561
a(g2412
S'1MKX4SNfsaR2UwJfrE89e5PhvcCVJdPJQD'
p2562
I2
tp2563
a(g2412
S'1QCtvKsS9WT1QZZ1e3baQDbDBmgKrLg1XB'
p2564
I2
tp2565
a(g2412
S'1HP9bBuGAPBepwZdXi6QBkh5jS7amQ7Jmv'
p2566
I2
tp2567
a(g2412
S'1EU8RaWaMFQYk6n3jtwjdYRak2nKpmURdD'
p2568
I2
tp2569
a(g2412
S'1P9VxBkT6R1Evd1rzfhRxdYV72D3BcVwJ6'
p2570
I2
tp2571
a(g2412
S'1LkVt3JtSmZiTDrinmBbYSEgciw98ngYx1'
p2572
I2
tp2573
a(g2412
S'1Muk74Xx1Xi5rCyUQPfor29SUJsYCAJNQ2'
p2574
I2
tp2575
a(g2412
S'1ERFCNpuomRHdWiBW5zmohhHCvYdh8w7Vt'
p2576
I2
tp2577
a(g2412
S'1NFFC96qoGomNfyXKGiooxfBuurK6PhAVG'
p2578
I2
tp2579
a(g2412
S'1JtctqyaFrSUw7pQEU7n1Ejb4gCW77qbq7'
p2580
I2
tp2581
a(g2412
S'1JxGkkXNPWUiKMZDJZMaH75onoW8p1brUJ'
p2582
I2
tp2583
a(g2412
S'1hSN6Vz698nGcGj6dotcEzk6KscR1Dbq6'
p2584
I2
tp2585
a(g2412
S'1Hm8msEnQKCpUfaCLqSBJkRCcbbFYFDUcq'
p2586
I2
tp2587
a(g2412
S'1LNFWmj6WKM1h39nEGKnjdyfHGXgNRyHSz'
p2588
I2
tp2589
a(g2412
S'1EuNc3rFNETsD6XyURRTwyvsymVKNmWHAu'
p2590
I2
tp2591
a(g2412
S'1C39nfKCpX4QzD2LGe64Ej99jF6UUkQcG'
p2592
I2
tp2593
a(g2412
S'1PQi4P4Q3VgZHrHiVjKmxZtoRLgiNbFmcn'
p2594
I2
tp2595
a(g2412
S'12TVuVkRDvnP5vycJZWR84YLNJQfHwcPuN'
p2596
I2
tp2597
a(g2412
S'14oY49UtRu6wZY2HmzaM4uLfabCrG9pFMh'
p2598
I2
tp2599
a(g2412
S'1AqwMuKJKxmRn8UrQsT3bUnbpJVgaNL9sF'
p2600
I2
tp2601
a(g2412
S'1Muk74Xx1Xi5rCyUQPfor29SUJsYCAJNQ2'
p2602
I2
tp2603
a(g2412
S'14sF81WemisnoYv7oSkc4cL2o9gmAV5ixy'
p2604
I2
tp2605
a(g2412
S'17rEVACMMK1bM3TsjWDSFL9RZJ3vhYKRNo'
p2606
I2
tp2607
a(g2412
S'127qiLbD8DF4EkXZYCe7YKQk4dwSkQ4N2Z'
p2608
I2
tp2609
a(g2412
S'1AddDe8oazYwqKZHutgsgL2RCap3Kgqq4U'
p2610
I2
tp2611
a(g2412
S'1KGX5HTEh29bBeSkrzZdzbjL1nC4afCW9p'
p2612
I2
tp2613
a(g2412
S'16aX9Y4aF97wEfGj8adK6EeHRA2DzwUS6J'
p2614
I2
tp2615
a(g2412
S'14oY49UtRu6wZY2HmzaM4uLfabCrG9pFMh'
p2616
I2
tp2617
a(g2412
S'1Fq8qXYW69EEjE41jHanYdVsxeNhExNTaT'
p2618
I2
tp2619
a(g2412
S'1BaMYyPz4CqrakpDaR5WpFqqUy6UmA2pHv'
p2620
I2
tp2621
a(g2412
S'16aX9Y4aF97wEfGj8adK6EeHRA2DzwUS6J'
p2622
I2
tp2623
a(g2412
S'1NQejp1aHoETQe2zNv4hicy4FRmsdc7DPQ'
p2624
I2
tp2625
a(g2412
S'1C3EqPYPWtG5Md9m7A9XBBqkovqEGvvy8T'
p2626
I2
tp2627
a(g2412
S'1BHQ8ZdVkYVAhBjnHbva5iyaiT5RCkL3iK'
p2628
I2
tp2629
a(g2412
S'1BDucQXAM6kEuM3JSXRkjZVcNG7ifUxpi1'
p2630
I2
tp2631
a(g2412
S'1Aj9HWZL4Dy3twK8BjhySFZv6MAXwfXgo2'
p2632
I2
tp2633
a(g2412
S'1MPDFQZekoGgtK8PX6i6xsLQfMG7jXk2nC'
p2634
I2
tp2635
a(g2412
S'1DNZVjgRAhSbMMC5a17vJpRT4CQExrQkLN'
p2636
I2
tp2637
a(g2412
S'1ACLPznYLCPyh5uKbvwyNEgbAe261WwxvF'
p2638
I2
tp2639
a(g2412
S'1AoQk3Neu7ttvaf6XKFMjNyUMBoKBgFJxk'
p2640
I2
tp2641
a(g2412
S'17artq84hyEmmD4G8jV2AS5Rm2dhEowyT'
p2642
I2
tp2643
a(g2412
S'15RjKKF3kB7KgWDv1nTYEH5MtiUtNRLDPB'
p2644
I2
tp2645
a(g2412
S'1Fq8qXYW69EEjE41jHanYdVsxeNhExNTaT'
p2646
I2
tp2647
a(g2412
S'1HHbcTL6J2adwsn6uD9GTvX9FR1fxfcziX'
p2648
I2
tp2649
a(g2412
S'1ARJQN2Vto2BU6uSztiGhvZRpirDDBdpLj'
p2650
I2
tp2651
a(g2412
S'15RjKKF3kB7KgWDv1nTYEH5MtiUtNRLDPB'
p2652
I2
tp2653
a(g2412
S'1C78UbFzRbo23UQrHfU55yNWi7w9H6vPP8'
p2654
I2
tp2655
a(g2412
S'1Co2keCPYTbToxYeXVnYDx3fHq46Jb4awY'
p2656
I2
tp2657
a(g2412
S'1HHbcTL6J2adwsn6uD9GTvX9FR1fxfcziX'
p2658
I2
tp2659
a(g2412
S'141q6BDMVJha38ow6Ttv27zwz89pC3CG15'
p2660
I2
tp2661
a(g2412
S'1q1VSzmU7hjW4XYE3BCx1ybzoEJNejCCz'
p2662
I2
tp2663
a(g2412
S'1C78UbFzRbo23UQrHfU55yNWi7w9H6vPP8'
p2664
I2
tp2665
a(g2412
S'13FwbSoszH6QjivSAE5frBeN9rJGqiH15S'
p2666
I2
tp2667
a(g2412
S'1KeQyMkjesZaZ4xNDZSUd1S1RCvoBZXki3'
p2668
I2
tp2669
a(g2412
S'1DfUyY7WEs8pgaqnbryZ1UzwCRqKRTVEAp'
p2670
I2
tp2671
a(g2412
S'141q6BDMVJha38ow6Ttv27zwz89pC3CG15'
p2672
I2
tp2673
a(g2412
S'19yWrYBtfqC9nNjnRxTv6aVDj6k1FX5iwf'
p2674
I2
tp2675
a(g2412
S'1CJq7i5eCZacDUh2EVZQUhhSVdQZnnhTxR'
p2676
I2
tp2677
a(g2412
S'13FwbSoszH6QjivSAE5frBeN9rJGqiH15S'
p2678
I2
tp2679
a(g2412
S'1w5psTFzqcXK5qnDmK2fEjgvKtNY1nZSB'
p2680
I2
tp2681
a(g2412
S'1HP9bBuGAPBepwZdXi6QBkh5jS7amQ7Jmv'
p2682
I2
tp2683
a(g2412
S'1DcENToxYgMi2wqW2dCr7VxgbZLecaELH1'
p2684
I2
tp2685
a(g2412
S'1MpxXLYZ98xdwZQ1XNUJz31sAjCdcXmVx'
p2686
I2
tp2687
a(g2412
S'19yWrYBtfqC9nNjnRxTv6aVDj6k1FX5iwf'
p2688
I2
tp2689
a(g2412
S'1EFQMTTE6fqUX8WPLB9pRiVcFqZMmN8rDs'
p2690
I2
tp2691
a(g2412
S'1HmbWdgAJw3XT3rreTozc1YqTkbCeUnxEW'
p2692
I2
tp2693
a(g2412
S'1DcENToxYgMi2wqW2dCr7VxgbZLecaELH1'
p2694
I2
tp2695
a(g2412
S'174BmLF6fgRp2wubsqQkJG7T4h9GMNC242'
p2696
I2
tp2697
a(g2412
S'19A51tjqDhEuDZoFZ8E4kRQJwqvCW1Wy1e'
p2698
I2
tp2699
a(g2412
S'1EFQMTTE6fqUX8WPLB9pRiVcFqZMmN8rDs'
p2700
I2
tp2701
a(g2412
S'12ZF1CsM1KwsDrimgKNGVik7xjSVxRyBts'
p2702
I2
tp2703
a(g2412
S'16Wss8xkV7Ty9ni2Pc1QiaRiWPSsiXXwtj'
p2704
I2
tp2705
a(g2412
S'174BmLF6fgRp2wubsqQkJG7T4h9GMNC242'
p2706
I2
tp2707
a(g2408
S'1Mr3kEFgjNPn7iFMtUFCt4dBXdFZfX6AfU'
p2708
I2
tp2709
a(g2408
S'1AB6k6jfajmC6Mm2uMn4BZtp99gHJNcJzA'
p2710
I2
tp2711
a(g2408
S'1MPZsccLaYBh6Vd7LxjbSzbemyE683ueZh'
p2712
I2
tp2713
a(g2408
S'1Q35gpwWiQaU5G47eRGduRwiznmMRmnDdT'
p2714
I2
tp2715
a(g2408
S'1NpEhhiFUPXKTtk2DxBT4nYVxq9vmeG11V'
p2716
I2
tp2717
a(g2410
S'12hS4Pv6BS1qxUV2fMHozYhvfMsoFrEUsq'
p2718
I2
tp2719
a(g2410
S'15zpbS96XcvRFnyh4Au9B1YRYK2tqpwLya'
p2720
I2
tp2721
a(g2410
S'1MPZsccLaYBh6Vd7LxjbSzbemyE683ueZh'
p2722
I2
tp2723
a(g2410
S'1Mr3kEFgjNPn7iFMtUFCt4dBXdFZfX6AfU'
p2724
I2
tp2725
a(g2410
S'15EAyx6ZXgsDRQ4y9yhaCrdkQiuTx8ej57'
p2726
I2
tp2727
a(g2410
S'1MPZsccLaYBh6Vd7LxjbSzbemyE683ueZh'
p2728
I2
tp2729
a.